Certificate:
    Data:
        Version: 3 (0x2)
        Serial Number:
            77:35:ee:48:7f:68:62:da:f1:b3:95:6d:96:1c:cb:0f:a6:f3:4f:4e
        Signature Algorithm: sha256WithRSAEncryption
        Issuer: C=US, ST=California, O=XML Security Library (http:\/\/www.aleksey.com\/xmlsec), OU=Root CA, CN=Aleksey Sanin/emailAddress=xmlsec@aleksey.com
        Validity
            Not Before: Mar  8 22:04:47 2026 GMT
            Not After : Feb 12 22:04:47 2126 GMT
        Subject: C=US, ST=California, O=XML Security Library (http:\/\/www.aleksey.com\/xmlsec), OU=Root CA, CN=Aleksey Sanin/emailAddress=xmlsec@aleksey.com
        Subject Public Key Info:
            Public Key Algorithm: rsaEncryption
                Public-Key: (2048 bit)
                Modulus:
                    00:b5:b2:81:af:81:00:a0:e9:bc:cc:05:bf:44:bf:
                    16:ad:dd:7e:db:81:0f:51:bc:f5:45:84:2e:4a:57:
                    2e:1d:cc:81:c2:dd:ee:19:75:6f:5c:d4:3a:7c:21:
                    8b:ab:98:a4:22:2d:cd:90:cc:a6:79:c2:01:f6:ed:
                    49:73:de:93:d0:59:29:4b:14:2b:a8:82:2f:94:23:
                    fa:82:96:8b:05:af:a5:cf:c8:b1:f1:77:9b:d2:e2:
                    78:0e:0f:11:0e:6c:13:05:f4:14:d8:43:5a:81:82:
                    dc:bf:49:a9:5b:b9:b2:02:6a:b3:1a:ad:7e:c5:d8:
                    1d:d8:26:ed:d4:54:41:e6:de:18:2a:a3:65:eb:ea:
                    45:6d:e5:cb:f4:41:9b:46:83:4f:ca:eb:be:09:f5:
                    ab:59:51:1e:25:f5:83:d5:8c:cc:e9:f8:41:d1:cf:
                    f3:a8:2c:42:df:66:35:87:fb:00:cc:d1:72:61:19:
                    98:51:42:e1:d8:cc:15:05:5c:ad:f3:7f:61:d2:30:
                    14:07:3c:c1:87:4f:ea:12:85:4b:e5:af:5d:68:3c:
                    77:9b:af:8f:4b:50:02:6f:e9:d7:51:26:1a:3a:ef:
                    25:54:cd:ab:3f:14:63:54:84:c7:06:8f:8d:1e:7d:
                    35:d9:3f:09:36:bc:1c:13:13:27:16:07:9a:55:7a:
                    3e:37
                Exponent: 65537 (0x10001)
        X509v3 extensions:
            X509v3 Subject Key Identifier: 
                33:79:5A:E4:01:43:4E:60:79:04:AD:92:CC:A0:C3:00:CC:6E:10:44
            X509v3 Authority Key Identifier: 
                keyid:33:79:5A:E4:01:43:4E:60:79:04:AD:92:CC:A0:C3:00:CC:6E:10:44
                DirName:/C=US/ST=California/O=XML Security Library (http:\/\/www.aleksey.com\/xmlsec)/OU=Root CA/CN=Aleksey Sanin/emailAddress=xmlsec@aleksey.com
                serial:77:35:EE:48:7F:68:62:DA:F1:B3:95:6D:96:1C:CB:0F:A6:F3:4F:4E
            X509v3 Basic Constraints: 
                CA:TRUE
    Signature Algorithm: sha256WithRSAEncryption
    Signature Value:
        55:52:ac:46:91:8c:6f:15:9e:ec:fd:99:26:8e:3d:6e:f3:c3:
        ef:3a:37:63:df:a2:e7:19:00:b2:54:3c:09:3d:75:c0:5e:8a:
        96:f4:8d:d6:dc:13:eb:6b:f5:f2:d6:f8:c5:a3:97:ab:91:d8:
        ef:36:1d:1f:fa:2c:99:55:2f:fd:11:57:4f:2a:cb:0f:75:97:
        77:f6:9d:18:22:25:32:1b:54:54:62:63:7f:20:10:f3:49:7f:
        cb:c0:14:e2:2c:69:4c:04:71:53:46:3e:8b:7e:cf:9e:35:fb:
        ba:3c:84:aa:00:18:7e:22:dd:ff:de:39:41:f3:cd:9e:8b:17:
        ac:76:c8:ef:b5:97:34:27:ab:03:91:ad:5b:c8:ca:2a:7b:8d:
        2d:c1:f2:34:b5:33:0c:bf:82:6b:43:01:a7:ed:87:a2:56:e5:
        99:fc:62:94:43:16:2b:03:e1:5f:21:64:79:99:a0:56:b6:78:
        5d:9a:36:8e:06:09:94:84:db:49:07:cc:81:70:7f:36:71:1a:
        f1:44:83:17:7f:6a:ae:42:b0:77:3f:8f:d6:40:2d:9b:c3:76:
        0f:1b:14:af:e7:04:28:67:07:30:0a:7e:9f:ee:0e:e8:40:5c:
        ba:70:03:4e:34:c0:46:ec:62:69:6f:0e:41:ff:cb:81:4b:56:
        ba:77:a4:60
-----BEGIN CERTIFICATE-----
MIIFEjCCA/qgAwIBAgIUdzXuSH9oYtrxs5VtlhzLD6bzT04wDQYJKoZIhvcNAQEL
BQAwga4xCzAJBgNVBAYTAlVTMRMwEQYDVQQIEwpDYWxpZm9ybmlhMT0wOwYDVQQK
EzRYTUwgU2VjdXJpdHkgTGlicmFyeSAoaHR0cDovL3d3dy5hbGVrc2V5LmNvbS94
bWxzZWMpMRAwDgYDVQQLEwdSb290IENBMRYwFAYDVQQDEw1BbGVrc2V5IFNhbmlu
MSEwHwYJKoZIhvcNAQkBFhJ4bWxzZWNAYWxla3NleS5jb20wIBcNMjYwMzA4MjIw
NDQ3WhgPMjEyNjAyMTIyMjA0NDdaMIGuMQswCQYDVQQGEwJVUzETMBEGA1UECBMK
Q2FsaWZvcm5pYTE9MDsGA1UEChM0WE1MIFNlY3VyaXR5IExpYnJhcnkgKGh0dHA6
Ly93d3cuYWxla3NleS5jb20veG1sc2VjKTEQMA4GA1UECxMHUm9vdCBDQTEWMBQG
A1UEAxMNQWxla3NleSBTYW5pbjEhMB8GCSqGSIb3DQEJARYSeG1sc2VjQGFsZWtz
ZXkuY29tMIIBIjANBgkqhkiG9w0BAQEFAAOCAQ8AMIIBCgKCAQEAtbKBr4EAoOm8
zAW/RL8Wrd1+24EPUbz1RYQuSlcuHcyBwt3uGXVvXNQ6fCGLq5ikIi3NkMymecIB
9u1Jc96T0FkpSxQrqIIvlCP6gpaLBa+lz8ix8Xeb0uJ4Dg8RDmwTBfQU2ENagYLc
v0mpW7myAmqzGq1+xdgd2Cbt1FRB5t4YKqNl6+pFbeXL9EGbRoNPyuu+CfWrWVEe
JfWD1YzM6fhB0c/zqCxC32Y1h/sAzNFyYRmYUULh2MwVBVyt839h0jAUBzzBh0/q
EoVL5a9daDx3m6+PS1ACb+nXUSYaOu8lVM2rPxRjVITHBo+NHn012T8JNrwcExMn
FgeaVXo+NwIDAQABo4IBIjCCAR4wHQYDVR0OBBYEFDN5WuQBQ05geQStksygwwDM
bhBEMIHuBgNVHSMEgeYwgeOAFDN5WuQBQ05geQStksygwwDMbhBEoYG0pIGxMIGu
MQswCQYDVQQGEwJVUzETMBEGA1UECBMKQ2FsaWZvcm5pYTE9MDsGA1UEChM0WE1M
IFNlY3VyaXR5IExpYnJhcnkgKGh0dHA6Ly93d3cuYWxla3NleS5jb20veG1sc2Vj
KTEQMA4GA1UECxMHUm9vdCBDQTEWMBQGA1UEAxMNQWxla3NleSBTYW5pbjEhMB8G
CSqGSIb3DQEJARYSeG1sc2VjQGFsZWtzZXkuY29tghR3Ne5If2hi2vGzlW2WHMsP
pvNPTjAMBgNVHRMEBTADAQH/MA0GCSqGSIb3DQEBCwUAA4IBAQBVUqxGkYxvFZ7s
/Zkmjj1u88PvOjdj36LnGQCyVDwJPXXAXoqW9I3W3BPra/Xy1vjFo5erkdjvNh0f
+iyZVS/9EVdPKssPdZd39p0YIiUyG1RUYmN/IBDzSX/LwBTiLGlMBHFTRj6Lfs+e
Nfu6PISqABh+It3/3jlB882eixesdsjvtZc0J6sDka1byMoqe40twfI0tTMMv4Jr
QwGn7YeiVuWZ/GKUQxYrA+FfIWR5maBWtnhdmjaOBgmUhNtJB8yBcH82cRrxRIMX
f2quQrB3P4/WQC2bw3YPGxSv5wQoZwcwCn6f7g7oQFy6cANONMBG7GJpbw5B/8uB
S1a6d6Rg
-----END CERTIFICATE-----
