Certificate:
    Data:
        Version: 3 (0x2)
        Serial Number:
            af:a2:8b:b9:33:ad:da:b9
        Signature Algorithm: sha1WithRSAEncryption
        Issuer: C=US, ST=California, O=XML Security Library (http:\/\/www.aleksey.com\/xmlsec), CN=Aleksey Sanin/emailAddress=xmlsec@aleksey.com
        Validity
            Not Before: Dec 12 20:14:48 2022 GMT
            Not After : Nov 18 20:14:48 2122 GMT
        Subject: C=US, ST=California, O=XML Security Library (http:\/\/www.aleksey.com\/xmlsec), OU=Test Third Level RSA Certificate, CN=Aleksey Sanin/emailAddress=xmlsec@aleksey.com
        Subject Public Key Info:
            Public Key Algorithm: rsaEncryption
                Public-Key: (2048 bit)
                Modulus:
                    00:9b:bb:93:1c:ed:a3:52:6a:18:09:01:67:8f:f4:
                    1a:10:2d:0a:2a:1a:77:bd:ad:1f:8f:73:1b:04:22:
                    27:bb:27:84:68:56:1c:8a:ee:2c:21:d7:c1:d3:d5:
                    34:cc:74:29:b8:7c:fe:8e:92:05:2b:a2:c1:cc:10:
                    b0:78:34:89:9b:e8:6c:c7:ab:4b:c9:f5:23:82:4f:
                    c0:78:52:7b:4d:44:9d:2a:26:b5:b0:d0:67:a5:f7:
                    d0:ad:ae:10:10:c4:44:93:82:0a:6a:07:d9:ad:03:
                    53:e8:e4:02:07:47:e8:50:f2:fd:8d:c6:a1:19:91:
                    04:b7:0e:48:c8:d4:b8:c7:e2:35:f7:89:2c:94:ee:
                    ae:ea:33:cd:26:ff:b8:82:8f:ca:d0:58:92:48:bd:
                    d9:39:dc:1f:3d:8e:3d:3a:b3:ef:39:66:dc:b0:82:
                    14:bb:12:a8:de:b1:18:96:fd:84:28:37:7f:6b:83:
                    85:e1:db:87:e2:55:67:47:ed:8b:00:2f:c1:ae:88:
                    4f:68:8a:65:a7:11:66:03:cb:26:15:36:8c:40:a0:
                    45:5e:e4:ec:95:d4:3f:51:62:3c:e9:fe:a3:f2:a4:
                    80:6c:40:9f:04:37:4c:41:37:c7:67:f6:31:71:94:
                    f0:c6:45:f5:31:46:6d:cc:b1:c4:e6:d3:38:98:5c:
                    63:67
                Exponent: 65537 (0x10001)
        X509v3 extensions:
            X509v3 Basic Constraints: 
                CA:TRUE
            Netscape Comment: 
                OpenSSL Generated Certificate
            X509v3 Subject Key Identifier: 
                99:88:66:9B:CA:A2:AD:21:CD:60:22:2B:FF:6C:21:1C:48:AF:3B:0A
            X509v3 Authority Key Identifier: 
                keyid:FE:E4:EC:53:24:F0:95:95:C7:10:B5:E1:44:B5:5D:39:65:5A:E3:7E
                DirName:/C=US/ST=California/O=XML Security Library (http:\/\/www.aleksey.com\/xmlsec)/OU=Root CA/CN=Aleksey Sanin/emailAddress=xmlsec@aleksey.com
                serial:AF:A2:8B:B9:33:AD:DA:AD
    Signature Algorithm: sha1WithRSAEncryption
    Signature Value:
        34:90:d3:67:7c:a8:a1:90:75:08:fd:0f:af:d9:a8:0e:76:e2:
        1a:46:9b:2b:ac:3d:32:3d:06:f0:a1:f1:1d:50:3b:5c:37:a2:
        78:3b:fe:6c:b5:fe:17:a9:b3:e7:47:eb:3c:38:da:e3:a7:17:
        a5:0a:ed:34:08:02:d3:5a:7c:73
-----BEGIN CERTIFICATE-----
MIIEbzCCBBmgAwIBAgIJAK+ii7kzrdq5MA0GCSqGSIb3DQEBBQUAMIGcMQswCQYD
VQQGEwJVUzETMBEGA1UECBMKQ2FsaWZvcm5pYTE9MDsGA1UEChM0WE1MIFNlY3Vy
aXR5IExpYnJhcnkgKGh0dHA6Ly93d3cuYWxla3NleS5jb20veG1sc2VjKTEWMBQG
A1UEAxMNQWxla3NleSBTYW5pbjEhMB8GCSqGSIb3DQEJARYSeG1sc2VjQGFsZWtz
ZXkuY29tMCAXDTIyMTIxMjIwMTQ0OFoYDzIxMjIxMTE4MjAxNDQ4WjCBxzELMAkG
A1UEBhMCVVMxEzARBgNVBAgTCkNhbGlmb3JuaWExPTA7BgNVBAoTNFhNTCBTZWN1
cml0eSBMaWJyYXJ5IChodHRwOi8vd3d3LmFsZWtzZXkuY29tL3htbHNlYykxKTAn
BgNVBAsTIFRlc3QgVGhpcmQgTGV2ZWwgUlNBIENlcnRpZmljYXRlMRYwFAYDVQQD
Ew1BbGVrc2V5IFNhbmluMSEwHwYJKoZIhvcNAQkBFhJ4bWxzZWNAYWxla3NleS5j
b20wggEiMA0GCSqGSIb3DQEBAQUAA4IBDwAwggEKAoIBAQCbu5Mc7aNSahgJAWeP
9BoQLQoqGne9rR+PcxsEIie7J4RoVhyK7iwh18HT1TTMdCm4fP6OkgUrosHMELB4
NImb6GzHq0vJ9SOCT8B4UntNRJ0qJrWw0Gel99CtrhAQxESTggpqB9mtA1Po5AIH
R+hQ8v2NxqEZkQS3DkjI1LjH4jX3iSyU7q7qM80m/7iCj8rQWJJIvdk53B89jj06
s+85ZtywghS7EqjesRiW/YQoN39rg4Xh24fiVWdH7YsAL8GuiE9oimWnEWYDyyYV
NoxAoEVe5OyV1D9RYjzp/qPypIBsQJ8EN0xBN8dn9jFxlPDGRfUxRm3MscTm0ziY
XGNnAgMBAAGjggFFMIIBQTAMBgNVHRMEBTADAQH/MCwGCWCGSAGG+EIBDQQfFh1P
cGVuU1NMIEdlbmVyYXRlZCBDZXJ0aWZpY2F0ZTAdBgNVHQ4EFgQUmYhmm8qirSHN
YCIr/2whHEivOwowgeMGA1UdIwSB2zCB2IAU/uTsUyTwlZXHELXhRLVdOWVa436h
gbSkgbEwga4xCzAJBgNVBAYTAlVTMRMwEQYDVQQIEwpDYWxpZm9ybmlhMT0wOwYD
VQQKEzRYTUwgU2VjdXJpdHkgTGlicmFyeSAoaHR0cDovL3d3dy5hbGVrc2V5LmNv
bS94bWxzZWMpMRAwDgYDVQQLEwdSb290IENBMRYwFAYDVQQDEw1BbGVrc2V5IFNh
bmluMSEwHwYJKoZIhvcNAQkBFhJ4bWxzZWNAYWxla3NleS5jb22CCQCvoou5M63a
rTANBgkqhkiG9w0BAQUFAANBADSQ02d8qKGQdQj9D6/ZqA524hpGmyusPTI9BvCh
8R1QO1w3ong7/my1/heps+dH6zw42uOnF6UK7TQIAtNafHM=
-----END CERTIFICATE-----
