Certificate:
    Data:
        Version: 3 (0x2)
        Serial Number:
            af:a2:8b:b9:33:ad:da:cb
        Signature Algorithm: sha1WithRSAEncryption
        Issuer: C=US, ST=California, O=XML Security Library (http:\/\/www.aleksey.com\/xmlsec), CN=Aleksey Sanin/emailAddress=xmlsec@aleksey.com
        Validity
            Not Before: Dec 20 22:55:55 2025 GMT
            Not After : Nov 26 22:55:55 2125 GMT
        Subject: C=US, ST=California, O=XML Security Library (http:\/\/www.aleksey.com\/xmlsec), CN=Test Key ec-prime256v1-second
        Subject Public Key Info:
            Public Key Algorithm: id-ecPublicKey
                Public-Key: (256 bit)
                pub:
                    04:79:9e:be:69:cc:3c:ca:e8:0b:09:e7:93:0b:44:
                    97:6f:33:9a:f9:6d:06:12:90:f7:86:69:e3:2c:c8:
                    09:e4:69:b1:6a:b5:2a:71:6d:67:b1:2f:2f:57:81:
                    ef:67:2c:ba:28:9c:ca:e3:ba:25:05:47:26:d5:19:
                    fd:28:c8:a8:a8
                ASN1 OID: prime256v1
                NIST CURVE: P-256
        X509v3 extensions:
            X509v3 Basic Constraints: 
                CA:TRUE
            Netscape Comment: 
                OpenSSL Generated Certificate
            X509v3 Subject Key Identifier: 
                E6:AB:9E:66:6D:60:E6:8D:6C:B6:A6:7C:6E:B1:A4:02:25:C8:4C:8E
            X509v3 Authority Key Identifier: 
                keyid:FE:E4:EC:53:24:F0:95:95:C7:10:B5:E1:44:B5:5D:39:65:5A:E3:7E
                DirName:/C=US/ST=California/O=XML Security Library (http:\/\/www.aleksey.com\/xmlsec)/OU=Root CA/CN=Aleksey Sanin/emailAddress=xmlsec@aleksey.com
                serial:AF:A2:8B:B9:33:AD:DA:AD
    Signature Algorithm: sha1WithRSAEncryption
    Signature Value:
        a0:5c:ad:44:07:b0:fc:7f:2c:a8:a9:97:4e:c4:9b:38:ed:79:
        09:1e:3c:63:6e:be:cf:42:3f:41:51:fc:92:c9:50:68:b3:b9:
        5e:a9:9c:e7:0d:e9:d9:5b:ea:d6:6e:91:29:9b:6d:f5:31:23:
        65:b6:96:7c:38:9c:17:01:95:7b
-----BEGIN CERTIFICATE-----
MIIDZjCCAxCgAwIBAgIJAK+ii7kzrdrLMA0GCSqGSIb3DQEBBQUAMIGcMQswCQYD
VQQGEwJVUzETMBEGA1UECBMKQ2FsaWZvcm5pYTE9MDsGA1UEChM0WE1MIFNlY3Vy
aXR5IExpYnJhcnkgKGh0dHA6Ly93d3cuYWxla3NleS5jb20veG1sc2VjKTEWMBQG
A1UEAxMNQWxla3NleSBTYW5pbjEhMB8GCSqGSIb3DQEJARYSeG1sc2VjQGFsZWtz
ZXkuY29tMCAXDTI1MTIyMDIyNTU1NVoYDzIxMjUxMTI2MjI1NTU1WjCBiTELMAkG
A1UEBhMCVVMxEzARBgNVBAgTCkNhbGlmb3JuaWExPTA7BgNVBAoTNFhNTCBTZWN1
cml0eSBMaWJyYXJ5IChodHRwOi8vd3d3LmFsZWtzZXkuY29tL3htbHNlYykxJjAk
BgNVBAMTHVRlc3QgS2V5IGVjLXByaW1lMjU2djEtc2Vjb25kMFkwEwYHKoZIzj0C
AQYIKoZIzj0DAQcDQgAEeZ6+acw8yugLCeeTC0SXbzOa+W0GEpD3hmnjLMgJ5Gmx
arUqcW1nsS8vV4HvZyy6KJzK47olBUcm1Rn9KMioqKOCAUUwggFBMAwGA1UdEwQF
MAMBAf8wLAYJYIZIAYb4QgENBB8WHU9wZW5TU0wgR2VuZXJhdGVkIENlcnRpZmlj
YXRlMB0GA1UdDgQWBBTmq55mbWDmjWy2pnxusaQCJchMjjCB4wYDVR0jBIHbMIHY
gBT+5OxTJPCVlccQteFEtV05ZVrjfqGBtKSBsTCBrjELMAkGA1UEBhMCVVMxEzAR
BgNVBAgTCkNhbGlmb3JuaWExPTA7BgNVBAoTNFhNTCBTZWN1cml0eSBMaWJyYXJ5
IChodHRwOi8vd3d3LmFsZWtzZXkuY29tL3htbHNlYykxEDAOBgNVBAsTB1Jvb3Qg
Q0ExFjAUBgNVBAMTDUFsZWtzZXkgU2FuaW4xITAfBgkqhkiG9w0BCQEWEnhtbHNl
Y0BhbGVrc2V5LmNvbYIJAK+ii7kzrdqtMA0GCSqGSIb3DQEBBQUAA0EAoFytRAew
/H8sqKmXTsSbOO15CR48Y26+z0I/QVH8kslQaLO5Xqmc5w3p2Vvq1m6RKZtt9TEj
ZbaWfDicFwGVew==
-----END CERTIFICATE-----
