Certificate:
    Data:
        Version: 3 (0x2)
        Serial Number:
            af:a2:8b:b9:33:ad:da:d2
        Signature Algorithm: sha1WithRSAEncryption
        Issuer: C=US, ST=California, O=XML Security Library (http:\/\/www.aleksey.com\/xmlsec), CN=Aleksey Sanin/emailAddress=xmlsec@aleksey.com
        Validity
            Not Before: Dec 21 02:33:19 2025 GMT
            Not After : Nov 27 02:33:19 2125 GMT
        Subject: C=US, ST=California, O=XML Security Library (http:\/\/www.aleksey.com\/xmlsec), CN=Test Key dsa-1024
        Subject Public Key Info:
            Public Key Algorithm: dsaEncryption
                Public-Key: (1024 bit)
                pub: 
                    00:fd:fc:61:30:1f:c8:48:26:22:4c:7b:54:35:99:
                    fe:9d:d1:f1:14:6a:27:0b:e4:d1:16:30:f8:d1:0f:
                    a6:be:c2:0a:ff:db:96:0e:9f:4b:88:f8:9f:f1:30:
                    82:04:69:28:d0:8f:68:82:2b:ef:8a:80:a0:37:ef:
                    9c:d2:d3:34:dc:54:fb:6a:36:50:01:ef:71:b6:3b:
                    e7:ac:53:97:11:6e:ba:ec:6e:a1:9d:05:1a:41:65:
                    f3:b8:bf:39:73:e1:ac:72:24:39:32:df:a9:82:9c:
                    df:15:7a:92:52:1b:25:b1:b6:3c:49:82:59:25:0c:
                    69:0d:ec:c9:87:f4:48:8e:f1
                P:   
                    00:fe:01:c8:c2:02:d9:20:2c:cc:09:3e:88:38:fc:
                    3a:89:2d:0a:1d:12:c4:30:f1:67:ec:be:60:fc:e5:
                    a0:58:d4:5f:40:94:4e:98:85:16:03:76:b8:2b:1c:
                    bd:74:11:dd:ba:11:16:d8:06:2c:09:3f:4d:60:16:
                    95:a7:06:ff:66:95:49:bf:3d:8f:6d:2b:7d:7c:34:
                    45:09:3b:c4:be:3e:c8:26:70:e3:8a:17:60:82:13:
                    bb:1d:ac:c5:5c:4d:b7:43:ea:87:8c:a8:3d:66:34:
                    ad:24:db:52:51:93:ae:8c:42:4f:c0:2a:d6:8f:89:
                    c7:d7:50:ec:9d:71:89:c3:1f
                Q:   
                    00:be:de:8e:b6:d8:96:b9:3f:81:5d:cb:94:89:53:
                    82:5b:6e:8e:3c:4d
                G:   
                    60:a4:c9:fd:43:8f:82:24:cd:9c:8c:a7:92:4b:d7:
                    f6:1e:15:1c:8f:36:7e:92:e7:11:1e:ab:20:31:c2:
                    61:bc:3e:18:cc:a2:28:cd:65:cd:2d:8a:f2:5b:fa:
                    68:f6:90:41:80:5f:97:08:66:8b:55:92:9b:e0:a4:
                    5c:7d:f4:60:a7:7b:4b:3c:27:58:b8:e2:0b:cb:04:
                    5b:e2:fb:d3:8b:72:ac:8a:66:a2:93:49:af:ef:5f:
                    bc:31:5f:17:15:e8:16:74:67:14:a9:61:af:9f:a4:
                    4d:55:b8:1b:3f:d0:5b:47:ed:18:a3:db:42:c0:54:
                    c3:5d:9f:54:4b:3f:a5:39
        X509v3 extensions:
            X509v3 Basic Constraints: 
                CA:TRUE
            Netscape Comment: 
                OpenSSL Generated Certificate
            X509v3 Subject Key Identifier: 
                EF:B4:F4:CF:CD:B3:60:9F:99:18:0D:3B:08:29:D2:B5:DF:CE:DA:FD
            X509v3 Authority Key Identifier: 
                keyid:FE:E4:EC:53:24:F0:95:95:C7:10:B5:E1:44:B5:5D:39:65:5A:E3:7E
                DirName:/C=US/ST=California/O=XML Security Library (http:\/\/www.aleksey.com\/xmlsec)/OU=Root CA/CN=Aleksey Sanin/emailAddress=xmlsec@aleksey.com
                serial:AF:A2:8B:B9:33:AD:DA:AD
    Signature Algorithm: sha1WithRSAEncryption
    Signature Value:
        19:21:eb:38:32:7a:b7:ec:7c:40:35:67:8c:15:3c:38:5e:cd:
        78:79:85:fe:1a:e0:3f:95:92:4e:80:8a:b0:c5:82:ae:ca:00:
        fa:8d:c7:14:d6:8d:e8:47:63:9c:da:7e:ac:21:04:07:61:dd:
        b1:6c:78:47:ba:49:75:1a:c5:cc
-----BEGIN CERTIFICATE-----
MIIEuTCCBGOgAwIBAgIJAK+ii7kzrdrSMA0GCSqGSIb3DQEBBQUAMIGcMQswCQYD
VQQGEwJVUzETMBEGA1UECBMKQ2FsaWZvcm5pYTE9MDsGA1UEChM0WE1MIFNlY3Vy
aXR5IExpYnJhcnkgKGh0dHA6Ly93d3cuYWxla3NleS5jb20veG1sc2VjKTEWMBQG
A1UEAxMNQWxla3NleSBTYW5pbjEhMB8GCSqGSIb3DQEJARYSeG1sc2VjQGFsZWtz
ZXkuY29tMCAXDTI1MTIyMTAyMzMxOVoYDzIxMjUxMTI3MDIzMzE5WjB9MQswCQYD
VQQGEwJVUzETMBEGA1UECBMKQ2FsaWZvcm5pYTE9MDsGA1UEChM0WE1MIFNlY3Vy
aXR5IExpYnJhcnkgKGh0dHA6Ly93d3cuYWxla3NleS5jb20veG1sc2VjKTEaMBgG
A1UEAxMRVGVzdCBLZXkgZHNhLTEwMjQwggG3MIIBKwYHKoZIzjgEATCCAR4CgYEA
/gHIwgLZICzMCT6IOPw6iS0KHRLEMPFn7L5g/OWgWNRfQJROmIUWA3a4Kxy9dBHd
uhEW2AYsCT9NYBaVpwb/ZpVJvz2PbSt9fDRFCTvEvj7IJnDjihdgghO7HazFXE23
Q+qHjKg9ZjStJNtSUZOujEJPwCrWj4nH11DsnXGJwx8CFQC+3o622Ja5P4Fdy5SJ
U4Jbbo48TQKBgGCkyf1Dj4IkzZyMp5JL1/YeFRyPNn6S5xEeqyAxwmG8PhjMoijN
Zc0tivJb+mj2kEGAX5cIZotVkpvgpFx99GCne0s8J1i44gvLBFvi+9OLcqyKZqKT
Sa/vX7wxXxcV6BZ0ZxSpYa+fpE1VuBs/0FtH7Rij20LAVMNdn1RLP6U5A4GFAAKB
gQD9/GEwH8hIJiJMe1Q1mf6d0fEUaicL5NEWMPjRD6a+wgr/25YOn0uI+J/xMIIE
aSjQj2iCK++KgKA375zS0zTcVPtqNlAB73G2O+esU5cRbrrsbqGdBRpBZfO4vzlz
4axyJDky36mCnN8VepJSGyWxtjxJglklDGkN7MmH9EiO8aOCAUUwggFBMAwGA1Ud
EwQFMAMBAf8wLAYJYIZIAYb4QgENBB8WHU9wZW5TU0wgR2VuZXJhdGVkIENlcnRp
ZmljYXRlMB0GA1UdDgQWBBTvtPTPzbNgn5kYDTsIKdK1387a/TCB4wYDVR0jBIHb
MIHYgBT+5OxTJPCVlccQteFEtV05ZVrjfqGBtKSBsTCBrjELMAkGA1UEBhMCVVMx
EzARBgNVBAgTCkNhbGlmb3JuaWExPTA7BgNVBAoTNFhNTCBTZWN1cml0eSBMaWJy
YXJ5IChodHRwOi8vd3d3LmFsZWtzZXkuY29tL3htbHNlYykxEDAOBgNVBAsTB1Jv
b3QgQ0ExFjAUBgNVBAMTDUFsZWtzZXkgU2FuaW4xITAfBgkqhkiG9w0BCQEWEnht
bHNlY0BhbGVrc2V5LmNvbYIJAK+ii7kzrdqtMA0GCSqGSIb3DQEBBQUAA0EAGSHr
ODJ6t+x8QDVnjBU8OF7NeHmF/hrgP5WSToCKsMWCrsoA+o3HFNaN6EdjnNp+rCEE
B2HdsWx4R7pJdRrFzA==
-----END CERTIFICATE-----
