Certificate:
    Data:
        Version: 3 (0x2)
        Serial Number:
            af:a2:8b:b9:33:ad:da:cf
        Signature Algorithm: sha1WithRSAEncryption
        Issuer: C=US, ST=California, O=XML Security Library (http:\/\/www.aleksey.com\/xmlsec), CN=Aleksey Sanin/emailAddress=xmlsec@aleksey.com
        Validity
            Not Before: Dec 20 22:57:58 2025 GMT
            Not After : Nov 26 22:57:58 2125 GMT
        Subject: C=US, ST=California, O=XML Security Library (http:\/\/www.aleksey.com\/xmlsec), CN=Test Key slh-dsa-sha2-128f
        Subject Public Key Info:
            Public Key Algorithm: SLH-DSA-SHA2-128f
                SLH-DSA-SHA2-128f Public-Key:
                pub:
                    ab:17:39:2d:a9:73:18:8c:fd:78:c2:bc:d8:02:03:
                    f6:e8:2a:1d:09:0e:7e:ab:b2:23:b3:2c:32:e7:7b:
                    90:77
        X509v3 extensions:
            X509v3 Basic Constraints: 
                CA:TRUE
            Netscape Comment: 
                OpenSSL Generated Certificate
            X509v3 Subject Key Identifier: 
                C0:14:74:4B:26:5B:E3:F7:E4:BE:2C:E6:7C:EF:5E:53:5C:18:B9:A2
            X509v3 Authority Key Identifier: 
                keyid:FE:E4:EC:53:24:F0:95:95:C7:10:B5:E1:44:B5:5D:39:65:5A:E3:7E
                DirName:/C=US/ST=California/O=XML Security Library (http:\/\/www.aleksey.com\/xmlsec)/OU=Root CA/CN=Aleksey Sanin/emailAddress=xmlsec@aleksey.com
                serial:AF:A2:8B:B9:33:AD:DA:AD
    Signature Algorithm: sha1WithRSAEncryption
    Signature Value:
        7a:93:89:84:8c:4e:e8:b7:6a:68:11:ac:83:66:58:f1:ab:d5:
        6d:12:dd:b8:c7:e7:c6:2e:e8:b8:c1:22:fa:7e:36:e6:d6:8b:
        fa:61:75:3b:cf:bd:31:47:9e:30:eb:78:59:1d:ac:8e:77:41:
        20:99:f1:22:b3:f2:67:b5:a6:f9
-----BEGIN CERTIFICATE-----
MIIDOjCCAuSgAwIBAgIJAK+ii7kzrdrPMA0GCSqGSIb3DQEBBQUAMIGcMQswCQYD
VQQGEwJVUzETMBEGA1UECBMKQ2FsaWZvcm5pYTE9MDsGA1UEChM0WE1MIFNlY3Vy
aXR5IExpYnJhcnkgKGh0dHA6Ly93d3cuYWxla3NleS5jb20veG1sc2VjKTEWMBQG
A1UEAxMNQWxla3NleSBTYW5pbjEhMB8GCSqGSIb3DQEJARYSeG1sc2VjQGFsZWtz
ZXkuY29tMCAXDTI1MTIyMDIyNTc1OFoYDzIxMjUxMTI2MjI1NzU4WjCBhjELMAkG
A1UEBhMCVVMxEzARBgNVBAgTCkNhbGlmb3JuaWExPTA7BgNVBAoTNFhNTCBTZWN1
cml0eSBMaWJyYXJ5IChodHRwOi8vd3d3LmFsZWtzZXkuY29tL3htbHNlYykxIzAh
BgNVBAMTGlRlc3QgS2V5IHNsaC1kc2Etc2hhMi0xMjhmMDAwCwYJYIZIAWUDBAMV
AyEAqxc5LalzGIz9eMK82AID9ugqHQkOfquyI7MsMud7kHejggFFMIIBQTAMBgNV
HRMEBTADAQH/MCwGCWCGSAGG+EIBDQQfFh1PcGVuU1NMIEdlbmVyYXRlZCBDZXJ0
aWZpY2F0ZTAdBgNVHQ4EFgQUwBR0SyZb4/fkvizmfO9eU1wYuaIwgeMGA1UdIwSB
2zCB2IAU/uTsUyTwlZXHELXhRLVdOWVa436hgbSkgbEwga4xCzAJBgNVBAYTAlVT
MRMwEQYDVQQIEwpDYWxpZm9ybmlhMT0wOwYDVQQKEzRYTUwgU2VjdXJpdHkgTGli
cmFyeSAoaHR0cDovL3d3dy5hbGVrc2V5LmNvbS94bWxzZWMpMRAwDgYDVQQLEwdS
b290IENBMRYwFAYDVQQDEw1BbGVrc2V5IFNhbmluMSEwHwYJKoZIhvcNAQkBFhJ4
bWxzZWNAYWxla3NleS5jb22CCQCvoou5M63arTANBgkqhkiG9w0BAQUFAANBAHqT
iYSMTui3amgRrINmWPGr1W0S3bjH58Yu6LjBIvp+NubWi/phdTvPvTFHnjDreFkd
rI53QSCZ8SKz8me1pvk=
-----END CERTIFICATE-----
