Certificate:
    Data:
        Version: 3 (0x2)
        Serial Number:
            af:a2:8b:b9:33:ad:da:c9
        Signature Algorithm: sha1WithRSAEncryption
        Issuer: C=US, ST=California, O=XML Security Library (http:\/\/www.aleksey.com\/xmlsec), CN=Aleksey Sanin/emailAddress=xmlsec@aleksey.com
        Validity
            Not Before: Dec 20 22:46:53 2025 GMT
            Not After : Nov 26 22:46:53 2125 GMT
        Subject: C=US, ST=California, O=XML Security Library (http:\/\/www.aleksey.com\/xmlsec), CN=EC Key
        Subject Public Key Info:
            Public Key Algorithm: id-ecPublicKey
                Public-Key: (256 bit)
                pub:
                    04:3e:73:6d:97:71:d1:13:9b:34:2a:0f:eb:8d:4c:
                    d1:16:55:25:58:25:1b:bb:29:2a:21:6d:6e:97:54:
                    b2:24:f6:0a:f3:84:d3:d3:c5:df:40:f6:f0:fb:99:
                    96:11:4a:89:3a:6b:48:6a:96:b6:c0:ff:05:73:aa:
                    e9:27:d1:77:dc
                ASN1 OID: prime256v1
                NIST CURVE: P-256
        X509v3 extensions:
            X509v3 Basic Constraints: 
                CA:TRUE
            Netscape Comment: 
                OpenSSL Generated Certificate
            X509v3 Subject Key Identifier: 
                FE:3B:7A:37:09:85:4D:AE:96:10:AE:B1:AC:26:40:EA:73:63:B9:93
            X509v3 Authority Key Identifier: 
                keyid:FE:E4:EC:53:24:F0:95:95:C7:10:B5:E1:44:B5:5D:39:65:5A:E3:7E
                DirName:/C=US/ST=California/O=XML Security Library (http:\/\/www.aleksey.com\/xmlsec)/OU=Root CA/CN=Aleksey Sanin/emailAddress=xmlsec@aleksey.com
                serial:AF:A2:8B:B9:33:AD:DA:AD
    Signature Algorithm: sha1WithRSAEncryption
    Signature Value:
        2c:3b:75:c1:41:81:63:97:3f:a6:72:4f:7b:48:44:a4:3b:85:
        d5:ab:89:59:6f:4e:7b:bb:f8:9b:28:22:2c:e0:06:e1:98:04:
        0d:59:3a:60:70:50:35:c6:4f:c6:71:2b:dd:bf:fb:15:54:be:
        6f:78:22:20:82:ee:7d:83:1c:21
-----BEGIN CERTIFICATE-----
MIIDTjCCAvigAwIBAgIJAK+ii7kzrdrJMA0GCSqGSIb3DQEBBQUAMIGcMQswCQYD
VQQGEwJVUzETMBEGA1UECBMKQ2FsaWZvcm5pYTE9MDsGA1UEChM0WE1MIFNlY3Vy
aXR5IExpYnJhcnkgKGh0dHA6Ly93d3cuYWxla3NleS5jb20veG1sc2VjKTEWMBQG
A1UEAxMNQWxla3NleSBTYW5pbjEhMB8GCSqGSIb3DQEJARYSeG1sc2VjQGFsZWtz
ZXkuY29tMCAXDTI1MTIyMDIyNDY1M1oYDzIxMjUxMTI2MjI0NjUzWjByMQswCQYD
VQQGEwJVUzETMBEGA1UECBMKQ2FsaWZvcm5pYTE9MDsGA1UEChM0WE1MIFNlY3Vy
aXR5IExpYnJhcnkgKGh0dHA6Ly93d3cuYWxla3NleS5jb20veG1sc2VjKTEPMA0G
A1UEAxMGRUMgS2V5MFkwEwYHKoZIzj0CAQYIKoZIzj0DAQcDQgAEPnNtl3HRE5s0
Kg/rjUzRFlUlWCUbuykqIW1ul1SyJPYK84TT08XfQPbw+5mWEUqJOmtIapa2wP8F
c6rpJ9F33KOCAUUwggFBMAwGA1UdEwQFMAMBAf8wLAYJYIZIAYb4QgENBB8WHU9w
ZW5TU0wgR2VuZXJhdGVkIENlcnRpZmljYXRlMB0GA1UdDgQWBBT+O3o3CYVNrpYQ
rrGsJkDqc2O5kzCB4wYDVR0jBIHbMIHYgBT+5OxTJPCVlccQteFEtV05ZVrjfqGB
tKSBsTCBrjELMAkGA1UEBhMCVVMxEzARBgNVBAgTCkNhbGlmb3JuaWExPTA7BgNV
BAoTNFhNTCBTZWN1cml0eSBMaWJyYXJ5IChodHRwOi8vd3d3LmFsZWtzZXkuY29t
L3htbHNlYykxEDAOBgNVBAsTB1Jvb3QgQ0ExFjAUBgNVBAMTDUFsZWtzZXkgU2Fu
aW4xITAfBgkqhkiG9w0BCQEWEnhtbHNlY0BhbGVrc2V5LmNvbYIJAK+ii7kzrdqt
MA0GCSqGSIb3DQEBBQUAA0EALDt1wUGBY5c/pnJPe0hEpDuF1auJWW9Oe7v4mygi
LOAG4ZgEDVk6YHBQNcZPxnEr3b/7FVS+b3giIILufYMcIQ==
-----END CERTIFICATE-----
