Certificate:
    Data:
        Version: 3 (0x2)
        Serial Number:
            af:a2:8b:b9:33:ad:da:bd
        Signature Algorithm: sha1WithRSAEncryption
        Issuer: C=US, ST=California, O=XML Security Library (http:\/\/www.aleksey.com\/xmlsec), CN=Aleksey Sanin/emailAddress=xmlsec@aleksey.com
        Validity
            Not Before: Feb 13 19:32:08 2023 GMT
            Not After : Jan 20 19:32:08 2123 GMT
        Subject: C=US, ST=California, O=XML Security Library (http:\/\/www.aleksey.com\/xmlsec), CN=ECDSA secp384r1 Key/emailAddress=xmlsec@aleksey.com
        Subject Public Key Info:
            Public Key Algorithm: id-ecPublicKey
                Public-Key: (384 bit)
                pub:
                    04:ef:32:ba:3a:d7:dd:c1:61:27:af:d1:39:36:3a:
                    20:ad:c2:e3:1f:4e:96:26:02:82:47:bc:2a:2a:cb:
                    87:04:d7:98:6f:ef:93:8c:5b:f2:2c:e0:bc:b2:1c:
                    fe:f9:1f:e2:27:77:1d:9d:97:40:04:78:bf:52:0d:
                    dc:34:79:cc:0e:06:fd:15:77:f1:18:61:4f:53:58:
                    be:3b:95:5c:89:f8:74:ae:e2:98:5a:ef:59:0f:59:
                    1e:83:df:d2:06:d0:62
                ASN1 OID: secp384r1
                NIST CURVE: P-384
        X509v3 extensions:
            X509v3 Basic Constraints: 
                CA:TRUE
            Netscape Comment: 
                OpenSSL Generated Certificate
            X509v3 Subject Key Identifier: 
                BF:56:7E:28:E9:4E:7B:FE:41:D2:C5:33:36:07:72:A8:FB:F9:25:C6
            X509v3 Authority Key Identifier: 
                keyid:FE:E4:EC:53:24:F0:95:95:C7:10:B5:E1:44:B5:5D:39:65:5A:E3:7E
                DirName:/C=US/ST=California/O=XML Security Library (http:\/\/www.aleksey.com\/xmlsec)/OU=Root CA/CN=Aleksey Sanin/emailAddress=xmlsec@aleksey.com
                serial:AF:A2:8B:B9:33:AD:DA:AD
    Signature Algorithm: sha1WithRSAEncryption
    Signature Value:
        ad:cc:94:60:0f:e8:cf:7d:73:91:48:ea:31:4b:b2:37:5a:3f:
        bb:9e:85:9b:ea:cb:b9:61:78:24:00:d3:f7:ba:26:44:d9:b8:
        d0:39:60:d0:59:09:c0:04:f7:c4:7e:62:e4:a9:2b:8f:21:75:
        9c:a7:f9:10:47:25:88:37:53:f4
-----BEGIN CERTIFICATE-----
MIIDnDCCA0agAwIBAgIJAK+ii7kzrdq9MA0GCSqGSIb3DQEBBQUAMIGcMQswCQYD
VQQGEwJVUzETMBEGA1UECBMKQ2FsaWZvcm5pYTE9MDsGA1UEChM0WE1MIFNlY3Vy
aXR5IExpYnJhcnkgKGh0dHA6Ly93d3cuYWxla3NleS5jb20veG1sc2VjKTEWMBQG
A1UEAxMNQWxla3NleSBTYW5pbjEhMB8GCSqGSIb3DQEJARYSeG1sc2VjQGFsZWtz
ZXkuY29tMCAXDTIzMDIxMzE5MzIwOFoYDzIxMjMwMTIwMTkzMjA4WjCBojELMAkG
A1UEBhMCVVMxEzARBgNVBAgTCkNhbGlmb3JuaWExPTA7BgNVBAoTNFhNTCBTZWN1
cml0eSBMaWJyYXJ5IChodHRwOi8vd3d3LmFsZWtzZXkuY29tL3htbHNlYykxHDAa
BgNVBAMTE0VDRFNBIHNlY3AzODRyMSBLZXkxITAfBgkqhkiG9w0BCQEWEnhtbHNl
Y0BhbGVrc2V5LmNvbTB2MBAGByqGSM49AgEGBSuBBAAiA2IABO8yujrX3cFhJ6/R
OTY6IK3C4x9OliYCgke8KirLhwTXmG/vk4xb8izgvLIc/vkf4id3HZ2XQAR4v1IN
3DR5zA4G/RV38RhhT1NYvjuVXIn4dK7imFrvWQ9ZHoPf0gbQYqOCAUUwggFBMAwG
A1UdEwQFMAMBAf8wLAYJYIZIAYb4QgENBB8WHU9wZW5TU0wgR2VuZXJhdGVkIENl
cnRpZmljYXRlMB0GA1UdDgQWBBS/Vn4o6U57/kHSxTM2B3Ko+/klxjCB4wYDVR0j
BIHbMIHYgBT+5OxTJPCVlccQteFEtV05ZVrjfqGBtKSBsTCBrjELMAkGA1UEBhMC
VVMxEzARBgNVBAgTCkNhbGlmb3JuaWExPTA7BgNVBAoTNFhNTCBTZWN1cml0eSBM
aWJyYXJ5IChodHRwOi8vd3d3LmFsZWtzZXkuY29tL3htbHNlYykxEDAOBgNVBAsT
B1Jvb3QgQ0ExFjAUBgNVBAMTDUFsZWtzZXkgU2FuaW4xITAfBgkqhkiG9w0BCQEW
EnhtbHNlY0BhbGVrc2V5LmNvbYIJAK+ii7kzrdqtMA0GCSqGSIb3DQEBBQUAA0EA
rcyUYA/oz31zkUjqMUuyN1o/u56Fm+rLuWF4JADT97omRNm40Dlg0FkJwAT3xH5i
5KkrjyF1nKf5EEcliDdT9A==
-----END CERTIFICATE-----
