Certificate:
    Data:
        Version: 3 (0x2)
        Serial Number:
            af:a2:8b:b9:33:ad:da:b7
        Signature Algorithm: sha1WithRSAEncryption
        Issuer: C=US, ST=California, O=XML Security Library (http:\/\/www.aleksey.com\/xmlsec), CN=Aleksey Sanin/emailAddress=xmlsec@aleksey.com
        Validity
            Not Before: Jun 22 22:40:30 2022 GMT
            Not After : May 29 22:40:30 2122 GMT
        Subject: C=US, ST=California, O=XML Security Library (http:\/\/www.aleksey.com\/xmlsec), OU=Test Third Level GOST2012 512 bits Certificate, CN=Aleksey Sanin/emailAddress=xmlsec@aleksey.com
        Subject Public Key Info:
            Public Key Algorithm: GOST R 34.10-2012 with 512 bit modulus
                Public key:
                   X:AAD5A2F181F87CA5803D4A96817BADA3712DA1EA2E70F77B98099C35CACB32B44A28DAC1F244CCEAF053AB6A0D156DFE2D4539F0B58A597B2FEE33C7575CD2A1
                   Y:882394AFB41FED5D1A0B86B70FEC372AA29F8AA5C7EEA21837E41861CC361150AF5467145725A36CD5F7ED7FF503EC7B68AFEC8FD5F14F9CCE8293B7E657AD3A
                Parameter set: GOST R 34.10-2012 (512 bit) ParamSet A
        X509v3 extensions:
            X509v3 Basic Constraints: 
                CA:TRUE
            Netscape Comment: 
                OpenSSL Generated Certificate
            X509v3 Subject Key Identifier: 
                AB:16:35:14:93:82:06:45:75:59:CA:3A:88:7C:34:5F:67:D1:AB:AF
            X509v3 Authority Key Identifier: 
                keyid:FE:E4:EC:53:24:F0:95:95:C7:10:B5:E1:44:B5:5D:39:65:5A:E3:7E
                DirName:/C=US/ST=California/O=XML Security Library (http:\/\/www.aleksey.com\/xmlsec)/OU=Root CA/CN=Aleksey Sanin/emailAddress=xmlsec@aleksey.com
                serial:AF:A2:8B:B9:33:AD:DA:AD
    Signature Algorithm: sha1WithRSAEncryption
    Signature Value:
        7b:75:f9:38:1f:0f:7a:f3:3f:d9:5e:8c:e8:11:33:8d:19:2c:
        ee:79:95:57:36:d4:19:dd:0f:d1:61:29:e5:f5:29:6e:d8:36:
        65:8b:b3:de:6c:60:02:0c:99:80:b6:c7:88:cc:d4:e7:d2:d7:
        13:09:d8:d9:07:36:3a:d8:0c:7b
-----BEGIN CERTIFICATE-----
MIIEBDCCA66gAwIBAgIJAK+ii7kzrdq3MA0GCSqGSIb3DQEBBQUAMIGcMQswCQYD
VQQGEwJVUzETMBEGA1UECBMKQ2FsaWZvcm5pYTE9MDsGA1UEChM0WE1MIFNlY3Vy
aXR5IExpYnJhcnkgKGh0dHA6Ly93d3cuYWxla3NleS5jb20veG1sc2VjKTEWMBQG
A1UEAxMNQWxla3NleSBTYW5pbjEhMB8GCSqGSIb3DQEJARYSeG1sc2VjQGFsZWtz
ZXkuY29tMCAXDTIyMDYyMjIyNDAzMFoYDzIxMjIwNTI5MjI0MDMwWjCB1TELMAkG
A1UEBhMCVVMxEzARBgNVBAgTCkNhbGlmb3JuaWExPTA7BgNVBAoTNFhNTCBTZWN1
cml0eSBMaWJyYXJ5IChodHRwOi8vd3d3LmFsZWtzZXkuY29tL3htbHNlYykxNzA1
BgNVBAsTLlRlc3QgVGhpcmQgTGV2ZWwgR09TVDIwMTIgNTEyIGJpdHMgQ2VydGlm
aWNhdGUxFjAUBgNVBAMTDUFsZWtzZXkgU2FuaW4xITAfBgkqhkiG9w0BCQEWEnht
bHNlY0BhbGVrc2V5LmNvbTCBqjAhBggqhQMHAQEBAjAVBgkqhQMHAQIBAgEGCCqF
AwcBAQIDA4GEAASBgKHSXFfHM+4ve1mKtfA5RS3+bRUNaqtT8OrMRPLB2ihKtDLL
yjWcCZh793Au6qEtcaOte4GWSj2ApXz4gfGi1ao6rVfmt5OCzpxP8dWP7K9oe+wD
9X/t99VsoyVXFGdUr1ARNsxhGOQ3GKLux6WKn6IqN+wPt4YLGl3tH7SvlCOIo4IB
RTCCAUEwDAYDVR0TBAUwAwEB/zAsBglghkgBhvhCAQ0EHxYdT3BlblNTTCBHZW5l
cmF0ZWQgQ2VydGlmaWNhdGUwHQYDVR0OBBYEFKsWNRSTggZFdVnKOoh8NF9n0auv
MIHjBgNVHSMEgdswgdiAFP7k7FMk8JWVxxC14US1XTllWuN+oYG0pIGxMIGuMQsw
CQYDVQQGEwJVUzETMBEGA1UECBMKQ2FsaWZvcm5pYTE9MDsGA1UEChM0WE1MIFNl
Y3VyaXR5IExpYnJhcnkgKGh0dHA6Ly93d3cuYWxla3NleS5jb20veG1sc2VjKTEQ
MA4GA1UECxMHUm9vdCBDQTEWMBQGA1UEAxMNQWxla3NleSBTYW5pbjEhMB8GCSqG
SIb3DQEJARYSeG1sc2VjQGFsZWtzZXkuY29tggkAr6KLuTOt2q0wDQYJKoZIhvcN
AQEFBQADQQB7dfk4Hw968z/ZXozoETONGSzueZVXNtQZ3Q/RYSnl9Slu2DZli7Pe
bGACDJmAtseIzNTn0tcTCdjZBzY62Ax7
-----END CERTIFICATE-----
