Certificate:
    Data:
        Version: 3 (0x2)
        Serial Number:
            af:a2:8b:b9:33:ad:da:b6
        Signature Algorithm: sha1WithRSAEncryption
        Issuer: C=US, ST=California, O=XML Security Library (http:\/\/www.aleksey.com\/xmlsec), CN=Aleksey Sanin/emailAddress=xmlsec@aleksey.com
        Validity
            Not Before: Jun 22 22:34:46 2022 GMT
            Not After : May 29 22:34:46 2122 GMT
        Subject: C=US, ST=California, O=XML Security Library (http:\/\/www.aleksey.com\/xmlsec), OU=Test Third Level GOST2012 256 bits Certificate, CN=Aleksey Sanin/emailAddress=xmlsec@aleksey.com
        Subject Public Key Info:
            Public Key Algorithm: GOST R 34.10-2012 with 256 bit modulus
                Public key:
                   X:59C4C616CA4B2C894DB66407AFD220A6119D568FB7BF9DC0048C701F4DE1E590
                   Y:CE6E7B2D1CB6A282739A968D66E55E408DF0131BB5BE5B88F4C9169497BF26B
                Parameter set: id-GostR3410-2001-CryptoPro-A-ParamSet
        X509v3 extensions:
            X509v3 Basic Constraints: 
                CA:TRUE
            Netscape Comment: 
                OpenSSL Generated Certificate
            X509v3 Subject Key Identifier: 
                18:94:7C:CA:80:B1:05:BC:6A:5D:B2:C0:72:69:DA:47:26:2C:6F:81
            X509v3 Authority Key Identifier: 
                keyid:FE:E4:EC:53:24:F0:95:95:C7:10:B5:E1:44:B5:5D:39:65:5A:E3:7E
                DirName:/C=US/ST=California/O=XML Security Library (http:\/\/www.aleksey.com\/xmlsec)/OU=Root CA/CN=Aleksey Sanin/emailAddress=xmlsec@aleksey.com
                serial:AF:A2:8B:B9:33:AD:DA:AD
    Signature Algorithm: sha1WithRSAEncryption
    Signature Value:
        a0:e8:cd:61:c0:3b:ef:fa:07:e9:8d:61:54:df:9e:07:10:82:
        fe:33:e6:b6:e1:33:28:56:89:2b:5e:ae:cd:35:0f:4d:5a:2f:
        82:95:1a:f4:07:e1:f8:6b:51:70:43:b8:40:39:a2:4b:fa:d8:
        88:46:82:86:eb:8d:77:f0:fb:68
-----BEGIN CERTIFICATE-----
MIIDvzCCA2mgAwIBAgIJAK+ii7kzrdq2MA0GCSqGSIb3DQEBBQUAMIGcMQswCQYD
VQQGEwJVUzETMBEGA1UECBMKQ2FsaWZvcm5pYTE9MDsGA1UEChM0WE1MIFNlY3Vy
aXR5IExpYnJhcnkgKGh0dHA6Ly93d3cuYWxla3NleS5jb20veG1sc2VjKTEWMBQG
A1UEAxMNQWxla3NleSBTYW5pbjEhMB8GCSqGSIb3DQEJARYSeG1sc2VjQGFsZWtz
ZXkuY29tMCAXDTIyMDYyMjIyMzQ0NloYDzIxMjIwNTI5MjIzNDQ2WjCB1TELMAkG
A1UEBhMCVVMxEzARBgNVBAgTCkNhbGlmb3JuaWExPTA7BgNVBAoTNFhNTCBTZWN1
cml0eSBMaWJyYXJ5IChodHRwOi8vd3d3LmFsZWtzZXkuY29tL3htbHNlYykxNzA1
BgNVBAsTLlRlc3QgVGhpcmQgTGV2ZWwgR09TVDIwMTIgMjU2IGJpdHMgQ2VydGlm
aWNhdGUxFjAUBgNVBAMTDUFsZWtzZXkgU2FuaW4xITAfBgkqhkiG9w0BCQEWEnht
bHNlY0BhbGVrc2V5LmNvbTBmMB8GCCqFAwcBAQEBMBMGByqFAwICIwEGCCqFAwcB
AQICA0MABECQ5eFNH3CMBMCdv7ePVp0RpiDSrwdktk2JLEvKFsbEWWvye0lpkUyP
uOVbuzEB3wjkVW7WaKk5Jyhqy9Gy5+YMo4IBRTCCAUEwDAYDVR0TBAUwAwEB/zAs
BglghkgBhvhCAQ0EHxYdT3BlblNTTCBHZW5lcmF0ZWQgQ2VydGlmaWNhdGUwHQYD
VR0OBBYEFBiUfMqAsQW8al2ywHJp2kcmLG+BMIHjBgNVHSMEgdswgdiAFP7k7FMk
8JWVxxC14US1XTllWuN+oYG0pIGxMIGuMQswCQYDVQQGEwJVUzETMBEGA1UECBMK
Q2FsaWZvcm5pYTE9MDsGA1UEChM0WE1MIFNlY3VyaXR5IExpYnJhcnkgKGh0dHA6
Ly93d3cuYWxla3NleS5jb20veG1sc2VjKTEQMA4GA1UECxMHUm9vdCBDQTEWMBQG
A1UEAxMNQWxla3NleSBTYW5pbjEhMB8GCSqGSIb3DQEJARYSeG1sc2VjQGFsZWtz
ZXkuY29tggkAr6KLuTOt2q0wDQYJKoZIhvcNAQEFBQADQQCg6M1hwDvv+gfpjWFU
354HEIL+M+a24TMoVokrXq7NNQ9NWi+ClRr0B+H4a1FwQ7hAOaJL+tiIRoKG6413
8Pto
-----END CERTIFICATE-----
