Certificate:
    Data:
        Version: 3 (0x2)
        Serial Number:
            af:a2:8b:b9:33:ad:da:c4
        Signature Algorithm: sha1WithRSAEncryption
        Issuer: C=US, ST=California, O=XML Security Library (http:\/\/www.aleksey.com\/xmlsec), CN=Aleksey Sanin/emailAddress=xmlsec@aleksey.com
        Validity
            Not Before: Dec 20 20:05:34 2025 GMT
            Not After : Nov 26 20:05:34 2125 GMT
        Subject: C=US, ST=California, O=XML Security Library (http:\/\/www.aleksey.com\/xmlsec), CN=SLH-DSA-SHA2-128F Key/emailAddress=xmlsec@aleksey.com
        Subject Public Key Info:
            Public Key Algorithm: SLH-DSA-SHA2-128f
                SLH-DSA-SHA2-128f Public-Key:
                pub:
                    a0:8d:ff:73:96:0b:18:f7:10:cf:b7:10:79:4a:32:
                    53:64:fb:5a:d1:9c:33:79:5b:11:16:e0:9a:96:29:
                    21:8d
        X509v3 extensions:
            X509v3 Basic Constraints: 
                CA:TRUE
            Netscape Comment: 
                OpenSSL Generated Certificate
            X509v3 Subject Key Identifier: 
                6B:CA:92:D2:62:9D:7C:E6:B6:7D:40:F4:9D:64:29:A9:5A:DC:83:65
            X509v3 Authority Key Identifier: 
                keyid:FE:E4:EC:53:24:F0:95:95:C7:10:B5:E1:44:B5:5D:39:65:5A:E3:7E
                DirName:/C=US/ST=California/O=XML Security Library (http:\/\/www.aleksey.com\/xmlsec)/OU=Root CA/CN=Aleksey Sanin/emailAddress=xmlsec@aleksey.com
                serial:AF:A2:8B:B9:33:AD:DA:AD
    Signature Algorithm: sha1WithRSAEncryption
    Signature Value:
        44:79:a3:61:97:9a:90:a1:20:02:20:ec:5a:22:4d:5d:f2:db:
        36:47:6d:c5:ea:1d:42:4e:94:64:eb:72:76:a8:6e:06:54:5d:
        7c:9d:8b:9a:e0:3a:db:eb:be:ba:e5:be:6e:6a:7b:6d:e7:7f:
        ec:9d:f6:c5:84:18:ae:7d:8b:7f
-----BEGIN CERTIFICATE-----
MIIDWDCCAwKgAwIBAgIJAK+ii7kzrdrEMA0GCSqGSIb3DQEBBQUAMIGcMQswCQYD
VQQGEwJVUzETMBEGA1UECBMKQ2FsaWZvcm5pYTE9MDsGA1UEChM0WE1MIFNlY3Vy
aXR5IExpYnJhcnkgKGh0dHA6Ly93d3cuYWxla3NleS5jb20veG1sc2VjKTEWMBQG
A1UEAxMNQWxla3NleSBTYW5pbjEhMB8GCSqGSIb3DQEJARYSeG1sc2VjQGFsZWtz
ZXkuY29tMCAXDTI1MTIyMDIwMDUzNFoYDzIxMjUxMTI2MjAwNTM0WjCBpDELMAkG
A1UEBhMCVVMxEzARBgNVBAgTCkNhbGlmb3JuaWExPTA7BgNVBAoTNFhNTCBTZWN1
cml0eSBMaWJyYXJ5IChodHRwOi8vd3d3LmFsZWtzZXkuY29tL3htbHNlYykxHjAc
BgNVBAMTFVNMSC1EU0EtU0hBMi0xMjhGIEtleTEhMB8GCSqGSIb3DQEJARYSeG1s
c2VjQGFsZWtzZXkuY29tMDAwCwYJYIZIAWUDBAMVAyEAoI3/c5YLGPcQz7cQeUoy
U2T7WtGcM3lbERbgmpYpIY2jggFFMIIBQTAMBgNVHRMEBTADAQH/MCwGCWCGSAGG
+EIBDQQfFh1PcGVuU1NMIEdlbmVyYXRlZCBDZXJ0aWZpY2F0ZTAdBgNVHQ4EFgQU
a8qS0mKdfOa2fUD0nWQpqVrcg2UwgeMGA1UdIwSB2zCB2IAU/uTsUyTwlZXHELXh
RLVdOWVa436hgbSkgbEwga4xCzAJBgNVBAYTAlVTMRMwEQYDVQQIEwpDYWxpZm9y
bmlhMT0wOwYDVQQKEzRYTUwgU2VjdXJpdHkgTGlicmFyeSAoaHR0cDovL3d3dy5h
bGVrc2V5LmNvbS94bWxzZWMpMRAwDgYDVQQLEwdSb290IENBMRYwFAYDVQQDEw1B
bGVrc2V5IFNhbmluMSEwHwYJKoZIhvcNAQkBFhJ4bWxzZWNAYWxla3NleS5jb22C
CQCvoou5M63arTANBgkqhkiG9w0BAQUFAANBAER5o2GXmpChIAIg7FoiTV3y2zZH
bcXqHUJOlGTrcnaobgZUXXydi5rgOtvrvrrlvm5qe23nf+yd9sWEGK59i38=
-----END CERTIFICATE-----
