Certificate:
    Data:
        Version: 3 (0x2)
        Serial Number:
            d6:8e:b8:e0:91:82:2c:f8
        Signature Algorithm: sha1WithRSAEncryption
        Issuer: C=US, ST=California, O=XML Security Library (http://www.aleksey.com/xmlsec), OU=Test Root Certificate, CN=Aleksey Sanin/emailAddress=xmlsec@aleksey.com
        Validity
            Not Before: Jul 10 02:29:55 2005 GMT
            Not After : Jul  8 02:29:55 2015 GMT
        Subject: C=US, ST=California, O=XML Security Library (http://www.aleksey.com/xmlsec), OU=Test Second Level RSA Certificate, CN=Aleksey Sanin/emailAddress=xmlsec@aleksey.com
        Subject Public Key Info:
            Public Key Algorithm: rsaEncryption
            RSA Public Key: (512 bit)
                Modulus (512 bit):
                    00:b2:ba:f2:89:d8:2b:94:3c:3d:f7:82:13:ed:e1:
                    0f:0c:8a:57:ac:1f:15:5b:6e:9c:8a:7e:66:9b:ad:
                    85:69:0c:65:43:98:e2:8a:a7:7d:fb:a8:95:19:67:
                    de:4a:7f:09:57:6d:1d:a3:d3:3c:8a:58:99:af:47:
                    15:31:f8:fb:13
                Exponent: 65537 (0x10001)
        X509v3 extensions:
            X509v3 Basic Constraints: 
                CA:TRUE
            Netscape Comment: 
                OpenSSL Generated Certificate
            X509v3 Subject Key Identifier: 
                FE:E4:EC:53:24:F0:95:95:C7:10:B5:E1:44:B5:5D:39:65:5A:E3:7E
            X509v3 Authority Key Identifier: 
                keyid:DA:46:E9:6B:E6:AF:D3:3D:AA:E5:21:4B:52:ED:CA:66:28:E0:FE:85
                DirName:/C=US/ST=California/O=XML Security Library (http://www.aleksey.com/xmlsec)/OU=Test Root Certificate/CN=Aleksey Sanin/emailAddress=xmlsec@aleksey.com
                serial:D6:8E:B8:E0:91:82:2C:F7

    Signature Algorithm: sha1WithRSAEncryption
        99:8d:11:8d:b4:95:a8:e5:3f:c6:fc:a1:4a:af:09:ba:4e:ae:
        f1:b0:c7:60:85:20:ad:f8:48:0d:95:2d:55:3d:6c:fa:8a:78:
        45:e3:8e:90:2e:d6:ed:90:ce:97:c3:31:84:99:ad:e0:a3:2a:
        73:a9:e2:62:84:1e:b9:74:c0:f5:0a:4e:95:e0:6a:8b:c4:7b:
        fb:47:32:78:67:9b:a3:92:4e:15:63:7b:27:bc:25:96:ea:4a:
        a7:58:89:70:ab:5c:01:1c:00:ed:bb:28:fd:0e:4e:79:f0:30:
        0c:de:29:b9:c8:35:dd:f3:98:29:59:2d:17:c5:cb:42:42:14:
        b1:f6
-----BEGIN CERTIFICATE-----
MIIEFTCCA36gAwIBAgIJANaOuOCRgiz4MA0GCSqGSIb3DQEBBQUAMIG8MQswCQYD
VQQGEwJVUzETMBEGA1UECBMKQ2FsaWZvcm5pYTE9MDsGA1UEChM0WE1MIFNlY3Vy
aXR5IExpYnJhcnkgKGh0dHA6Ly93d3cuYWxla3NleS5jb20veG1sc2VjKTEeMBwG
A1UECxMVVGVzdCBSb290IENlcnRpZmljYXRlMRYwFAYDVQQDEw1BbGVrc2V5IFNh
bmluMSEwHwYJKoZIhvcNAQkBFhJ4bWxzZWNAYWxla3NleS5jb20wHhcNMDUwNzEw
MDIyOTU1WhcNMTUwNzA4MDIyOTU1WjCByDELMAkGA1UEBhMCVVMxEzARBgNVBAgT
CkNhbGlmb3JuaWExPTA7BgNVBAoTNFhNTCBTZWN1cml0eSBMaWJyYXJ5IChodHRw
Oi8vd3d3LmFsZWtzZXkuY29tL3htbHNlYykxKjAoBgNVBAsTIVRlc3QgU2Vjb25k
IExldmVsIFJTQSBDZXJ0aWZpY2F0ZTEWMBQGA1UEAxMNQWxla3NleSBTYW5pbjEh
MB8GCSqGSIb3DQEJARYSeG1sc2VjQGFsZWtzZXkuY29tMFwwDQYJKoZIhvcNAQEB
BQADSwAwSAJBALK68onYK5Q8PfeCE+3hDwyKV6wfFVtunIp+ZputhWkMZUOY4oqn
ffuolRln3kp/CVdtHaPTPIpYma9HFTH4+xMCAwEAAaOCAVMwggFPMAwGA1UdEwQF
MAMBAf8wLAYJYIZIAYb4QgENBB8WHU9wZW5TU0wgR2VuZXJhdGVkIENlcnRpZmlj
YXRlMB0GA1UdDgQWBBT+5OxTJPCVlccQteFEtV05ZVrjfjCB8QYDVR0jBIHpMIHm
gBTaRulr5q/TParlIUtS7cpmKOD+haGBwqSBvzCBvDELMAkGA1UEBhMCVVMxEzAR
BgNVBAgTCkNhbGlmb3JuaWExPTA7BgNVBAoTNFhNTCBTZWN1cml0eSBMaWJyYXJ5
IChodHRwOi8vd3d3LmFsZWtzZXkuY29tL3htbHNlYykxHjAcBgNVBAsTFVRlc3Qg
Um9vdCBDZXJ0aWZpY2F0ZTEWMBQGA1UEAxMNQWxla3NleSBTYW5pbjEhMB8GCSqG
SIb3DQEJARYSeG1sc2VjQGFsZWtzZXkuY29tggkA1o644JGCLPcwDQYJKoZIhvcN
AQEFBQADgYEAmY0RjbSVqOU/xvyhSq8Juk6u8bDHYIUgrfhIDZUtVT1s+op4ReOO
kC7W7ZDOl8MxhJmt4KMqc6niYoQeuXTA9QpOleBqi8R7+0cyeGebo5JOFWN7J7wl
lupKp1iJcKtcARwA7bso/Q5OefAwDN4pucg13fOYKVktF8XLQkIUsfY=
-----END CERTIFICATE-----
