Certificate:
    Data:
        Version: 3 (0x2)
        Serial Number:
            d6:8e:b8:e0:91:82:2c:f9
        Signature Algorithm: sha1WithRSAEncryption
        Issuer: C=US, ST=California, O=XML Security Library (http://www.aleksey.com/xmlsec), OU=Test Second Level RSA Certificate, CN=Aleksey Sanin/emailAddress=xmlsec@aleksey.com
        Validity
            Not Before: Jul 10 02:31:59 2005 GMT
            Not After : Jul  8 02:31:59 2015 GMT
        Subject: C=US, ST=California, O=XML Security Library (http://www.aleksey.com/xmlsec), OU=Test Third Level DSA Certificate, CN=Aleksey Sanin/emailAddress=xmlsec@aleksey.com
        Subject Public Key Info:
            Public Key Algorithm: dsaEncryption
            DSA Public Key:
                pub: 
                    3a:27:48:30:c9:93:75:5a:21:f7:55:1c:f9:ce:8a:
                    d4:6a:57:95:cf:15:f3:03:92:c3:5b:d1:67:a5:9d:
                    97:65:fe:aa:24:97:d7:9a:53:ef:2e:88:7e:cb:b6:
                    c5:34:41:85:fd:94:4f:24:4e:99:5c:51:d0:f4:6f:
                    18:c3:60:9d
                P:   
                    00:c8:31:fc:3a:3f:bf:45:73:0d:21:af:16:0a:ab:
                    77:8f:87:bc:26:7a:f7:3d:e5:48:df:17:62:47:40:
                    90:57:25:bf:57:14:16:b9:2d:1c:bb:d6:5c:e1:fc:
                    e6:0c:1f:8a:21:e2:08:a2:15:54:55:04:25:bd:1e:
                    96:6a:39:33:49
                Q:   
                    00:94:43:ab:9a:a8:c9:1b:7b:5f:8d:4e:3d:5e:32:
                    6e:33:70:17:36:c9
                G:   
                    05:33:c3:39:9b:a7:9d:db:67:e6:f3:0d:c3:94:e9:
                    41:a1:dc:88:3f:4c:57:4b:19:76:1e:be:cd:ed:89:
                    96:85:2d:af:ff:11:81:7e:97:94:dd:b2:bd:cd:42:
                    91:91:45:fe:1a:ad:7b:d7:3d:9c:88:26:16:18:1c:
                    95:64:ec:e3
        X509v3 extensions:
            X509v3 Basic Constraints: 
                CA:TRUE
            Netscape Comment: 
                OpenSSL Generated Certificate
            X509v3 Subject Key Identifier: 
                A5:58:9F:29:70:2D:1A:42:47:44:03:DA:AE:67:A7:BA:F7:29:65:3E
            X509v3 Authority Key Identifier: 
                keyid:FE:E4:EC:53:24:F0:95:95:C7:10:B5:E1:44:B5:5D:39:65:5A:E3:7E
                DirName:/C=US/ST=California/O=XML Security Library (http://www.aleksey.com/xmlsec)/OU=Test Root Certificate/CN=Aleksey Sanin/emailAddress=xmlsec@aleksey.com
                serial:D6:8E:B8:E0:91:82:2C:F8

    Signature Algorithm: sha1WithRSAEncryption
        24:1f:4a:73:8f:d9:d2:14:f0:88:36:11:e5:f5:d5:3f:2c:c0:
        8c:3f:81:78:28:51:17:5e:33:b5:69:75:3a:5e:91:11:61:51:
        6c:81:9f:13:3d:d7:0e:00:87:0a:2a:1c:33:c1:31:5e:2e:f3:
        9f:6e:91:d3:bd:9c:74:1c:fb:fb
-----BEGIN CERTIFICATE-----
MIIEdDCCBB6gAwIBAgIJANaOuOCRgiz5MA0GCSqGSIb3DQEBBQUAMIHIMQswCQYD
VQQGEwJVUzETMBEGA1UECBMKQ2FsaWZvcm5pYTE9MDsGA1UEChM0WE1MIFNlY3Vy
aXR5IExpYnJhcnkgKGh0dHA6Ly93d3cuYWxla3NleS5jb20veG1sc2VjKTEqMCgG
A1UECxMhVGVzdCBTZWNvbmQgTGV2ZWwgUlNBIENlcnRpZmljYXRlMRYwFAYDVQQD
Ew1BbGVrc2V5IFNhbmluMSEwHwYJKoZIhvcNAQkBFhJ4bWxzZWNAYWxla3NleS5j
b20wHhcNMDUwNzEwMDIzMTU5WhcNMTUwNzA4MDIzMTU5WjCBxzELMAkGA1UEBhMC
VVMxEzARBgNVBAgTCkNhbGlmb3JuaWExPTA7BgNVBAoTNFhNTCBTZWN1cml0eSBM
aWJyYXJ5IChodHRwOi8vd3d3LmFsZWtzZXkuY29tL3htbHNlYykxKTAnBgNVBAsT
IFRlc3QgVGhpcmQgTGV2ZWwgRFNBIENlcnRpZmljYXRlMRYwFAYDVQQDEw1BbGVr
c2V5IFNhbmluMSEwHwYJKoZIhvcNAQkBFhJ4bWxzZWNAYWxla3NleS5jb20wgfAw
gagGByqGSM44BAEwgZwCQQDIMfw6P79Fcw0hrxYKq3ePh7wmevc95UjfF2JHQJBX
Jb9XFBa5LRy71lzh/OYMH4oh4giiFVRVBCW9HpZqOTNJAhUAlEOrmqjJG3tfjU49
XjJuM3AXNskCQAUzwzmbp53bZ+bzDcOU6UGh3Ig/TFdLGXYevs3tiZaFLa//EYF+
l5Tdsr3NQpGRRf4arXvXPZyIJhYYHJVk7OMDQwACQDonSDDJk3VaIfdVHPnOitRq
V5XPFfMDksNb0WelnZdl/qokl9eaU+8uiH7LtsU0QYX9lE8kTplcUdD0bxjDYJ2j
ggFTMIIBTzAMBgNVHRMEBTADAQH/MCwGCWCGSAGG+EIBDQQfFh1PcGVuU1NMIEdl
bmVyYXRlZCBDZXJ0aWZpY2F0ZTAdBgNVHQ4EFgQUpVifKXAtGkJHRAParmenuvcp
ZT4wgfEGA1UdIwSB6TCB5oAU/uTsUyTwlZXHELXhRLVdOWVa436hgcKkgb8wgbwx
CzAJBgNVBAYTAlVTMRMwEQYDVQQIEwpDYWxpZm9ybmlhMT0wOwYDVQQKEzRYTUwg
U2VjdXJpdHkgTGlicmFyeSAoaHR0cDovL3d3dy5hbGVrc2V5LmNvbS94bWxzZWMp
MR4wHAYDVQQLExVUZXN0IFJvb3QgQ2VydGlmaWNhdGUxFjAUBgNVBAMTDUFsZWtz
ZXkgU2FuaW4xITAfBgkqhkiG9w0BCQEWEnhtbHNlY0BhbGVrc2V5LmNvbYIJANaO
uOCRgiz4MA0GCSqGSIb3DQEBBQUAA0EAJB9Kc4/Z0hTwiDYR5fXVPyzAjD+BeChR
F14ztWl1Ol6REWFRbIGfEz3XDgCHCiocM8ExXi7zn26R072cdBz7+w==
-----END CERTIFICATE-----
