Certificate:
    Data:
        Version: 3 (0x2)
        Serial Number:
            af:a2:8b:b9:33:ad:da:c0
        Signature Algorithm: sha1WithRSAEncryption
        Issuer: C=US, ST=California, O=XML Security Library (http:\/\/www.aleksey.com\/xmlsec), CN=Aleksey Sanin/emailAddress=xmlsec@aleksey.com
        Validity
            Not Before: Feb 26 17:32:33 2023 GMT
            Not After : Feb  2 17:32:33 2123 GMT
        Subject: C=US, ST=California, O=XML Security Library (http:\/\/www.aleksey.com\/xmlsec), OU=EC prime256v1 Second Key, CN=Aleksey Sanin/emailAddress=xmlsec@aleksey.com
        Subject Public Key Info:
            Public Key Algorithm: id-ecPublicKey
                Public-Key: (256 bit)
                pub:
                    04:da:81:2d:98:e1:55:6e:74:d8:32:c2:fc:8b:b2:
                    4d:73:ec:77:33:e8:70:3f:b1:e2:bd:03:18:bf:a4:
                    fc:e8:f9:da:a2:48:bb:12:da:e1:61:af:2e:61:1d:
                    e0:0b:72:96:fa:3a:0d:a7:57:c9:30:d0:19:2f:ed:
                    4d:1c:82:48:02
                ASN1 OID: prime256v1
                NIST CURVE: P-256
        X509v3 extensions:
            X509v3 Basic Constraints: 
                CA:TRUE
            Netscape Comment: 
                OpenSSL Generated Certificate
            X509v3 Subject Key Identifier: 
                8A:F9:F5:EA:0A:4B:40:39:F2:D1:8A:E0:14:AD:7F:0F:E6:E2:DD:B0
            X509v3 Authority Key Identifier: 
                keyid:FE:E4:EC:53:24:F0:95:95:C7:10:B5:E1:44:B5:5D:39:65:5A:E3:7E
                DirName:/C=US/ST=California/O=XML Security Library (http:\/\/www.aleksey.com\/xmlsec)/OU=Root CA/CN=Aleksey Sanin/emailAddress=xmlsec@aleksey.com
                serial:AF:A2:8B:B9:33:AD:DA:AD
    Signature Algorithm: sha1WithRSAEncryption
    Signature Value:
        6a:64:be:13:4f:84:e9:5d:0a:cc:b3:a3:69:ac:89:ed:dd:c1:
        5c:4e:3a:61:fb:c3:1c:f7:d3:c7:5f:25:ea:3b:60:a2:a6:d7:
        51:90:4f:ce:e5:5f:3d:c8:81:d5:e3:42:81:a5:c6:77:b1:be:
        ad:f8:26:b9:74:21:23:f2:41:4a
-----BEGIN CERTIFICATE-----
MIIDnDCCA0agAwIBAgIJAK+ii7kzrdrAMA0GCSqGSIb3DQEBBQUAMIGcMQswCQYD
VQQGEwJVUzETMBEGA1UECBMKQ2FsaWZvcm5pYTE9MDsGA1UEChM0WE1MIFNlY3Vy
aXR5IExpYnJhcnkgKGh0dHA6Ly93d3cuYWxla3NleS5jb20veG1sc2VjKTEWMBQG
A1UEAxMNQWxla3NleSBTYW5pbjEhMB8GCSqGSIb3DQEJARYSeG1sc2VjQGFsZWtz
ZXkuY29tMCAXDTIzMDIyNjE3MzIzM1oYDzIxMjMwMjAyMTczMjMzWjCBvzELMAkG
A1UEBhMCVVMxEzARBgNVBAgTCkNhbGlmb3JuaWExPTA7BgNVBAoTNFhNTCBTZWN1
cml0eSBMaWJyYXJ5IChodHRwOi8vd3d3LmFsZWtzZXkuY29tL3htbHNlYykxITAf
BgNVBAsTGEVDIHByaW1lMjU2djEgU2Vjb25kIEtleTEWMBQGA1UEAxMNQWxla3Nl
eSBTYW5pbjEhMB8GCSqGSIb3DQEJARYSeG1sc2VjQGFsZWtzZXkuY29tMFkwEwYH
KoZIzj0CAQYIKoZIzj0DAQcDQgAE2oEtmOFVbnTYMsL8i7JNc+x3M+hwP7HivQMY
v6T86Pnaoki7EtrhYa8uYR3gC3KW+joNp1fJMNAZL+1NHIJIAqOCAUUwggFBMAwG
A1UdEwQFMAMBAf8wLAYJYIZIAYb4QgENBB8WHU9wZW5TU0wgR2VuZXJhdGVkIENl
cnRpZmljYXRlMB0GA1UdDgQWBBSK+fXqCktAOfLRiuAUrX8P5uLdsDCB4wYDVR0j
BIHbMIHYgBT+5OxTJPCVlccQteFEtV05ZVrjfqGBtKSBsTCBrjELMAkGA1UEBhMC
VVMxEzARBgNVBAgTCkNhbGlmb3JuaWExPTA7BgNVBAoTNFhNTCBTZWN1cml0eSBM
aWJyYXJ5IChodHRwOi8vd3d3LmFsZWtzZXkuY29tL3htbHNlYykxEDAOBgNVBAsT
B1Jvb3QgQ0ExFjAUBgNVBAMTDUFsZWtzZXkgU2FuaW4xITAfBgkqhkiG9w0BCQEW
EnhtbHNlY0BhbGVrc2V5LmNvbYIJAK+ii7kzrdqtMA0GCSqGSIb3DQEBBQUAA0EA
amS+E0+E6V0KzLOjaayJ7d3BXE46YfvDHPfTx18l6jtgoqbXUZBPzuVfPciB1eNC
gaXGd7G+rfgmuXQhI/JBSg==
-----END CERTIFICATE-----
