Certificate:
    Data:
        Version: 3 (0x2)
        Serial Number:
            af:a2:8b:b9:33:ad:da:be
        Signature Algorithm: sha1WithRSAEncryption
        Issuer: C=US, ST=California, O=XML Security Library (http:\/\/www.aleksey.com\/xmlsec), CN=Aleksey Sanin/emailAddress=xmlsec@aleksey.com
        Validity
            Not Before: Feb 26 05:29:13 2023 GMT
            Not After : Feb  2 05:29:13 2123 GMT
        Subject: C=US, ST=California, O=XML Security Library (http:\/\/www.aleksey.com\/xmlsec), OU=ECDSA secp256r1 Second Key, CN=Aleksey Sanin/emailAddress=xmlsec@aleksey.com
        Subject Public Key Info:
            Public Key Algorithm: id-ecPublicKey
                Public-Key: (256 bit)
                pub:
                    04:c6:26:c3:3b:eb:5c:12:de:4b:db:14:e1:27:01:
                    ca:a2:91:66:fc:d9:a1:1b:f2:3f:b8:4c:be:7e:1a:
                    5c:d6:ad:5d:e6:a3:c6:e6:2d:46:02:a9:55:4f:48:
                    aa:0d:c0:2e:a2:08:a9:02:68:73:8a:dc:e2:87:3b:
                    59:18:eb:51:bd
                ASN1 OID: prime256v1
                NIST CURVE: P-256
        X509v3 extensions:
            X509v3 Basic Constraints: 
                CA:TRUE
            Netscape Comment: 
                OpenSSL Generated Certificate
            X509v3 Subject Key Identifier: 
                03:FD:67:58:C6:76:16:E2:2F:F5:20:F6:86:A5:FE:6D:D0:35:4F:00
            X509v3 Authority Key Identifier: 
                keyid:FE:E4:EC:53:24:F0:95:95:C7:10:B5:E1:44:B5:5D:39:65:5A:E3:7E
                DirName:/C=US/ST=California/O=XML Security Library (http:\/\/www.aleksey.com\/xmlsec)/OU=Root CA/CN=Aleksey Sanin/emailAddress=xmlsec@aleksey.com
                serial:AF:A2:8B:B9:33:AD:DA:AD
    Signature Algorithm: sha1WithRSAEncryption
    Signature Value:
        9a:be:c2:08:0b:05:eb:3a:2a:e7:62:ce:f2:46:b3:f6:a5:9f:
        e9:6e:4a:13:63:6b:b5:77:37:34:23:ca:f8:a2:5f:47:81:7d:
        5c:b1:93:7a:e8:a4:c5:dc:8b:ae:06:bc:74:f9:2d:06:32:c2:
        da:c8:96:cf:f7:46:31:be:9a:88
-----BEGIN CERTIFICATE-----
MIIDnjCCA0igAwIBAgIJAK+ii7kzrdq+MA0GCSqGSIb3DQEBBQUAMIGcMQswCQYD
VQQGEwJVUzETMBEGA1UECBMKQ2FsaWZvcm5pYTE9MDsGA1UEChM0WE1MIFNlY3Vy
aXR5IExpYnJhcnkgKGh0dHA6Ly93d3cuYWxla3NleS5jb20veG1sc2VjKTEWMBQG
A1UEAxMNQWxla3NleSBTYW5pbjEhMB8GCSqGSIb3DQEJARYSeG1sc2VjQGFsZWtz
ZXkuY29tMCAXDTIzMDIyNjA1MjkxM1oYDzIxMjMwMjAyMDUyOTEzWjCBwTELMAkG
A1UEBhMCVVMxEzARBgNVBAgTCkNhbGlmb3JuaWExPTA7BgNVBAoTNFhNTCBTZWN1
cml0eSBMaWJyYXJ5IChodHRwOi8vd3d3LmFsZWtzZXkuY29tL3htbHNlYykxIzAh
BgNVBAsTGkVDRFNBIHNlY3AyNTZyMSBTZWNvbmQgS2V5MRYwFAYDVQQDEw1BbGVr
c2V5IFNhbmluMSEwHwYJKoZIhvcNAQkBFhJ4bWxzZWNAYWxla3NleS5jb20wWTAT
BgcqhkjOPQIBBggqhkjOPQMBBwNCAATGJsM761wS3kvbFOEnAcqikWb82aEb8j+4
TL5+GlzWrV3mo8bmLUYCqVVPSKoNwC6iCKkCaHOK3OKHO1kY61G9o4IBRTCCAUEw
DAYDVR0TBAUwAwEB/zAsBglghkgBhvhCAQ0EHxYdT3BlblNTTCBHZW5lcmF0ZWQg
Q2VydGlmaWNhdGUwHQYDVR0OBBYEFAP9Z1jGdhbiL/Ug9oal/m3QNU8AMIHjBgNV
HSMEgdswgdiAFP7k7FMk8JWVxxC14US1XTllWuN+oYG0pIGxMIGuMQswCQYDVQQG
EwJVUzETMBEGA1UECBMKQ2FsaWZvcm5pYTE9MDsGA1UEChM0WE1MIFNlY3VyaXR5
IExpYnJhcnkgKGh0dHA6Ly93d3cuYWxla3NleS5jb20veG1sc2VjKTEQMA4GA1UE
CxMHUm9vdCBDQTEWMBQGA1UEAxMNQWxla3NleSBTYW5pbjEhMB8GCSqGSIb3DQEJ
ARYSeG1sc2VjQGFsZWtzZXkuY29tggkAr6KLuTOt2q0wDQYJKoZIhvcNAQEFBQAD
QQCavsIICwXrOirnYs7yRrP2pZ/pbkoTY2u1dzc0I8r4ol9HgX1csZN66KTF3Iuu
Brx0+S0GMsLayJbP90YxvpqI
-----END CERTIFICATE-----
