Certificate:
    Data:
        Version: 3 (0x2)
        Serial Number: 1 (0x1)
        Signature Algorithm: md5WithRSAEncryption
        Issuer: C=US, ST=California, L=Sunnyvale, O=http://www.aleksey.com/xmlsec, CN=Aleksey Sanin/emailAddress=aleksey@aleksey.com
        Validity
            Not Before: Oct  1 07:00:21 2002 GMT
            Not After : Oct  4 07:00:21 2002 GMT
        Subject: C=US, ST=California, O=http://www.aleksey.com/xmlsec, CN=Aleksey Sanin/emailAddress=aleksey@aleksey.com
        Subject Public Key Info:
            Public Key Algorithm: rsaEncryption
            RSA Public Key: (512 bit)
                Modulus (512 bit):
                    00:c0:20:e3:2b:9b:34:1e:1c:78:cc:a6:ab:20:a5:
                    6c:4b:8f:05:60:3d:1e:b9:00:bb:8a:27:d8:46:d5:
                    9e:b7:c1:ab:b2:f8:e6:52:64:19:54:36:44:4b:3d:
                    68:08:7e:7d:2f:6f:88:4c:41:50:2f:90:8c:35:7f:
                    25:d8:e7:47:a1
                Exponent: 65537 (0x10001)
        X509v3 extensions:
            X509v3 Basic Constraints: 
            CA:FALSE
            Netscape Comment: 
            OpenSSL Generated Certificate
            X509v3 Subject Key Identifier: 
            AF:B7:A6:58:73:1D:AA:14:33:37:7D:38:CE:D7:AA:00:68:26:39:61
            X509v3 Authority Key Identifier: 
            keyid:77:A9:BA:94:51:EF:29:DD:E8:3D:D7:6B:0F:4A:4A:FA:B8:FF:C6:CD
            DirName:/C=US/ST=California/L=Sunnyvale/O=http://www.aleksey.com/xmlsec/CN=Aleksey Sanin/emailAddress=aleksey@aleksey.com
            serial:00

    Signature Algorithm: md5WithRSAEncryption
        54:df:aa:4a:c8:c8:61:25:1e:36:38:ee:46:ac:7f:66:9a:7c:
        41:f9:d3:6e:12:d6:75:cb:67:29:fc:84:f9:1b:39:73:da:b2:
        08:89:f5:f2:42:c3:e4:a0:7c:ea:e7:60:99:5d:e3:31:bc:8c:
        dc:42:1d:59:67:49:da:01:c7:5f:06:46:ae:31:6a:5d:35:d9:
        b6:9a:02:fb:2f:8a:f9:6a:70:5b:e3:48:fc:9c:c9:08:78:22:
        10:2c:c1:ea:d6:bb:2e:a6:fc:9d:57:7f:19:fa:a8:dc:cf:01:
        63:de:06:7d:20:ff:7e:6a:61:cc:ac:4c:69:70:1c:d1:d3:a7:
        2e:c2
-----BEGIN CERTIFICATE-----
MIIDfDCCAuWgAwIBAgIBATANBgkqhkiG9w0BAQQFADCBmjELMAkGA1UEBhMCVVMx
EzARBgNVBAgTCkNhbGlmb3JuaWExEjAQBgNVBAcTCVN1bm55dmFsZTEmMCQGA1UE
ChMdaHR0cDovL3d3dy5hbGVrc2V5LmNvbS94bWxzZWMxFjAUBgNVBAMTDUFsZWtz
ZXkgU2FuaW4xIjAgBgkqhkiG9w0BCQEWE2FsZWtzZXlAYWxla3NleS5jb20wHhcN
MDIxMDAxMDcwMDIxWhcNMDIxMDA0MDcwMDIxWjCBhjELMAkGA1UEBhMCVVMxEzAR
BgNVBAgTCkNhbGlmb3JuaWExJjAkBgNVBAoTHWh0dHA6Ly93d3cuYWxla3NleS5j
b20veG1sc2VjMRYwFAYDVQQDEw1BbGVrc2V5IFNhbmluMSIwIAYJKoZIhvcNAQkB
FhNhbGVrc2V5QGFsZWtzZXkuY29tMFwwDQYJKoZIhvcNAQEBBQADSwAwSAJBAMAg
4yubNB4ceMymqyClbEuPBWA9HrkAu4on2EbVnrfBq7L45lJkGVQ2REs9aAh+fS9v
iExBUC+QjDV/JdjnR6ECAwEAAaOCASYwggEiMAkGA1UdEwQCMAAwLAYJYIZIAYb4
QgENBB8WHU9wZW5TU0wgR2VuZXJhdGVkIENlcnRpZmljYXRlMB0GA1UdDgQWBBSv
t6ZYcx2qFDM3fTjO16oAaCY5YTCBxwYDVR0jBIG/MIG8gBR3qbqUUe8p3eg912sP
Skr6uP/GzaGBoKSBnTCBmjELMAkGA1UEBhMCVVMxEzARBgNVBAgTCkNhbGlmb3Ju
aWExEjAQBgNVBAcTCVN1bm55dmFsZTEmMCQGA1UEChMdaHR0cDovL3d3dy5hbGVr
c2V5LmNvbS94bWxzZWMxFjAUBgNVBAMTDUFsZWtzZXkgU2FuaW4xIjAgBgkqhkiG
9w0BCQEWE2FsZWtzZXlAYWxla3NleS5jb22CAQAwDQYJKoZIhvcNAQEEBQADgYEA
VN+qSsjIYSUeNjjuRqx/Zpp8QfnTbhLWdctnKfyE+Rs5c9qyCIn18kLD5KB86udg
mV3jMbyM3EIdWWdJ2gHHXwZGrjFqXTXZtpoC+y+K+WpwW+NI/JzJCHgiECzB6ta7
Lqb8nVd/Gfqo3M8BY94GfSD/fmphzKxMaXAc0dOnLsI=
-----END CERTIFICATE-----
