Certificate:
    Data:
        Version: 3 (0x2)
        Serial Number: 4 (0x4)
        Signature Algorithm: md5WithRSAEncryption
        Issuer: C=US, ST=California, O=XML Security Library (http://www.aleksey.com/xmlsec), OU=Second Level Certificate, CN=Aleksey Sanin/emailAddress=xmlsec@aleksey.com
        Validity
            Not Before: Feb  2 08:03:01 2002 GMT
            Not After : May  3 08:03:01 2002 GMT
        Subject: C=US, ST=California, O=XML Security Library (http://www.aleksey.com/xmlsec), OU=Expired Certificate, CN=Aleksey Sanin/emailAddress=xmlsec@aleksey.com
        Subject Public Key Info:
            Public Key Algorithm: rsaEncryption
            RSA Public Key: (512 bit)
                Modulus (512 bit):
                    00:c0:20:e3:2b:9b:34:1e:1c:78:cc:a6:ab:20:a5:
                    6c:4b:8f:05:60:3d:1e:b9:00:bb:8a:27:d8:46:d5:
                    9e:b7:c1:ab:b2:f8:e6:52:64:19:54:36:44:4b:3d:
                    68:08:7e:7d:2f:6f:88:4c:41:50:2f:90:8c:35:7f:
                    25:d8:e7:47:a1
                Exponent: 65537 (0x10001)
        X509v3 extensions:
            X509v3 Basic Constraints: 
            CA:FALSE
            Netscape Comment: 
            OpenSSL Generated Certificate
            X509v3 Subject Key Identifier: 
            AF:B7:A6:58:73:1D:AA:14:33:37:7D:38:CE:D7:AA:00:68:26:39:61
            X509v3 Authority Key Identifier: 
            keyid:78:D7:2D:91:61:2F:95:22:4A:BB:E1:D5:3D:C6:26:AF:AB:97:D2:04
            DirName:/C=US/ST=California/L=Sunnyvale/O=XML Security Library (http://www.aleksey.com/xmlsec)/OU=Root Certificate/CN=Aleksey Sanin/emailAddress=xmlsec@aleksey.com
            serial:01

    Signature Algorithm: md5WithRSAEncryption
        17:42:07:f0:8d:90:14:c3:28:19:ec:07:4c:e0:33:54:69:c0:
        6c:07:84:c3:2f:cb:0a:1f:44:b6:15:8a:13:8c:3b:f4:3d:d3:
        dc:aa:d2:14:b5:9c:04:75:57:a9:7e:46:a3:70:00:3d:ee:46:
        1f:11:79:da:34:08:00:68:bf:31
-----BEGIN CERTIFICATE-----
MIIDxTCCA2+gAwIBAgIBBDANBgkqhkiG9w0BAQQFADCBvzELMAkGA1UEBhMCVVMx
EzARBgNVBAgTCkNhbGlmb3JuaWExPTA7BgNVBAoTNFhNTCBTZWN1cml0eSBMaWJy
YXJ5IChodHRwOi8vd3d3LmFsZWtzZXkuY29tL3htbHNlYykxITAfBgNVBAsTGFNl
Y29uZCBMZXZlbCBDZXJ0aWZpY2F0ZTEWMBQGA1UEAxMNQWxla3NleSBTYW5pbjEh
MB8GCSqGSIb3DQEJARYSeG1sc2VjQGFsZWtzZXkuY29tMB4XDTAyMDIwMjA4MDMw
MVoXDTAyMDUwMzA4MDMwMVowgboxCzAJBgNVBAYTAlVTMRMwEQYDVQQIEwpDYWxp
Zm9ybmlhMT0wOwYDVQQKEzRYTUwgU2VjdXJpdHkgTGlicmFyeSAoaHR0cDovL3d3
dy5hbGVrc2V5LmNvbS94bWxzZWMpMRwwGgYDVQQLExNFeHBpcmVkIENlcnRpZmlj
YXRlMRYwFAYDVQQDEw1BbGVrc2V5IFNhbmluMSEwHwYJKoZIhvcNAQkBFhJ4bWxz
ZWNAYWxla3NleS5jb20wXDANBgkqhkiG9w0BAQEFAANLADBIAkEAwCDjK5s0Hhx4
zKarIKVsS48FYD0euQC7iifYRtWet8GrsvjmUmQZVDZESz1oCH59L2+ITEFQL5CM
NX8l2OdHoQIDAQABo4IBVzCCAVMwCQYDVR0TBAIwADAsBglghkgBhvhCAQ0EHxYd
T3BlblNTTCBHZW5lcmF0ZWQgQ2VydGlmaWNhdGUwHQYDVR0OBBYEFK+3plhzHaoU
Mzd9OM7XqgBoJjlhMIH4BgNVHSMEgfAwge2AFHjXLZFhL5UiSrvh1T3GJq+rl9IE
oYHRpIHOMIHLMQswCQYDVQQGEwJVUzETMBEGA1UECBMKQ2FsaWZvcm5pYTESMBAG
A1UEBxMJU3Vubnl2YWxlMT0wOwYDVQQKEzRYTUwgU2VjdXJpdHkgTGlicmFyeSAo
aHR0cDovL3d3dy5hbGVrc2V5LmNvbS94bWxzZWMpMRkwFwYDVQQLExBSb290IENl
cnRpZmljYXRlMRYwFAYDVQQDEw1BbGVrc2V5IFNhbmluMSEwHwYJKoZIhvcNAQkB
FhJ4bWxzZWNAYWxla3NleS5jb22CAQEwDQYJKoZIhvcNAQEEBQADQQAXQgfwjZAU
wygZ7AdM4DNUacBsB4TDL8sKH0S2FYoTjDv0PdPcqtIUtZwEdVepfkajcAA97kYf
EXnaNAgAaL8x
-----END CERTIFICATE-----
