Certificate:
    Data:
        Version: 3 (0x2)
        Serial Number:
            d6:8e:b8:e0:91:82:2c:fb
        Signature Algorithm: sha1WithRSAEncryption
        Issuer: C=US, ST=California, O=XML Security Library (http://www.aleksey.com/xmlsec), OU=Test Second Level RSA Certificate, CN=Aleksey Sanin/emailAddress=xmlsec@aleksey.com
        Validity
            Not Before: Jul 10 03:51:56 2005 GMT
            Not After : Jul 11 03:51:56 2005 GMT
        Subject: C=US, ST=California, O=XML Security Library (http://www.aleksey.com/xmlsec), OU=Test Expired RSA Certificate, CN=Aleksey Sanin/emailAddress=xmlsec@aleksey.com
        Subject Public Key Info:
            Public Key Algorithm: rsaEncryption
            RSA Public Key: (512 bit)
                Modulus (512 bit):
                    00:c9:52:65:60:40:40:66:30:bf:34:3e:f4:7c:cc:
                    8c:06:93:20:e2:13:96:e8:11:64:78:a4:69:9a:19:
                    43:87:6d:19:c5:42:4b:76:9a:df:b8:fd:07:98:b6:
                    6e:c6:45:54:54:7b:a6:09:8a:05:28:bd:4d:6e:dc:
                    34:03:88:e8:f3
                Exponent: 65537 (0x10001)
        X509v3 extensions:
            X509v3 Basic Constraints: 
            CA:TRUE
            Netscape Comment: 
            OpenSSL Generated Certificate
            X509v3 Subject Key Identifier: 
            F9:FA:89:12:34:4A:3B:59:06:DF:2E:17:F2:C0:8F:B2:26:07:78:C9
            X509v3 Authority Key Identifier: 
            keyid:FE:E4:EC:53:24:F0:95:95:C7:10:B5:E1:44:B5:5D:39:65:5A:E3:7E
            DirName:/C=US/ST=California/O=XML Security Library (http://www.aleksey.com/xmlsec)/OU=Test Root Certificate/CN=Aleksey Sanin/emailAddress=xmlsec@aleksey.com
            serial:D6:8E:B8:E0:91:82:2C:F8

    Signature Algorithm: sha1WithRSAEncryption
        98:b4:e9:2f:8a:2a:8b:e5:63:ac:b2:12:61:8c:58:e4:57:c0:
        a8:00:98:00:ea:48:6c:87:56:33:64:2d:8e:8c:c1:75:0c:45:
        55:22:b6:44:79:f6:cf:55:b6:81:6c:bb:37:c5:50:99:fa:e0:
        80:de:f7:2c:82:8e:5e:ea:15:e4
-----BEGIN CERTIFICATE-----
MIID2zCCA4WgAwIBAgIJANaOuOCRgiz7MA0GCSqGSIb3DQEBBQUAMIHIMQswCQYD
VQQGEwJVUzETMBEGA1UECBMKQ2FsaWZvcm5pYTE9MDsGA1UEChM0WE1MIFNlY3Vy
aXR5IExpYnJhcnkgKGh0dHA6Ly93d3cuYWxla3NleS5jb20veG1sc2VjKTEqMCgG
A1UECxMhVGVzdCBTZWNvbmQgTGV2ZWwgUlNBIENlcnRpZmljYXRlMRYwFAYDVQQD
Ew1BbGVrc2V5IFNhbmluMSEwHwYJKoZIhvcNAQkBFhJ4bWxzZWNAYWxla3NleS5j
b20wHhcNMDUwNzEwMDM1MTU2WhcNMDUwNzExMDM1MTU2WjCBwzELMAkGA1UEBhMC
VVMxEzARBgNVBAgTCkNhbGlmb3JuaWExPTA7BgNVBAoTNFhNTCBTZWN1cml0eSBM
aWJyYXJ5IChodHRwOi8vd3d3LmFsZWtzZXkuY29tL3htbHNlYykxJTAjBgNVBAsT
HFRlc3QgRXhwaXJlZCBSU0EgQ2VydGlmaWNhdGUxFjAUBgNVBAMTDUFsZWtzZXkg
U2FuaW4xITAfBgkqhkiG9w0BCQEWEnhtbHNlY0BhbGVrc2V5LmNvbTBcMA0GCSqG
SIb3DQEBAQUAA0sAMEgCQQDJUmVgQEBmML80PvR8zIwGkyDiE5boEWR4pGmaGUOH
bRnFQkt2mt+4/QeYtm7GRVRUe6YJigUovU1u3DQDiOjzAgMBAAGjggFTMIIBTzAM
BgNVHRMEBTADAQH/MCwGCWCGSAGG+EIBDQQfFh1PcGVuU1NMIEdlbmVyYXRlZCBD
ZXJ0aWZpY2F0ZTAdBgNVHQ4EFgQU+fqJEjRKO1kG3y4X8sCPsiYHeMkwgfEGA1Ud
IwSB6TCB5oAU/uTsUyTwlZXHELXhRLVdOWVa436hgcKkgb8wgbwxCzAJBgNVBAYT
AlVTMRMwEQYDVQQIEwpDYWxpZm9ybmlhMT0wOwYDVQQKEzRYTUwgU2VjdXJpdHkg
TGlicmFyeSAoaHR0cDovL3d3dy5hbGVrc2V5LmNvbS94bWxzZWMpMR4wHAYDVQQL
ExVUZXN0IFJvb3QgQ2VydGlmaWNhdGUxFjAUBgNVBAMTDUFsZWtzZXkgU2FuaW4x
ITAfBgkqhkiG9w0BCQEWEnhtbHNlY0BhbGVrc2V5LmNvbYIJANaOuOCRgiz4MA0G
CSqGSIb3DQEBBQUAA0EAmLTpL4oqi+VjrLISYYxY5FfAqACYAOpIbIdWM2QtjozB
dQxFVSK2RHn2z1W2gWy7N8VQmfrggN73LIKOXuoV5A==
-----END CERTIFICATE-----
