Certificate:
    Data:
        Version: 3 (0x2)
        Serial Number:
            d6:8e:b8:e0:91:82:2c:fc
        Signature Algorithm: sha1WithRSAEncryption
        Issuer: C=US, ST=California, O=XML Security Library (http://www.aleksey.com/xmlsec), OU=Test Second Level RSA Certificate, CN=Aleksey Sanin/emailAddress=xmlsec@aleksey.com
        Validity
            Not Before: Jul 11 02:50:11 2005 GMT
            Not After : Jul  9 02:50:11 2015 GMT
        Subject: C=US, ST=California, O=XML Security Library (http://www.aleksey.com/xmlsec), OU=Test Large RSA Key, CN=Aleksey Sanin/emailAddress=xmlsec@aleksey.com
        Subject Public Key Info:
            Public Key Algorithm: rsaEncryption
            RSA Public Key: (4096 bit)
                Modulus (4096 bit):
                    00:f3:61:f9:36:54:ae:5d:17:68:1b:18:28:24:72:
                    4e:39:5d:bf:20:17:c8:7c:20:59:fb:a3:42:e4:2c:
                    b7:0d:6d:97:7e:e1:9b:ba:59:c3:e7:e8:64:ff:76:
                    35:58:e0:90:fa:2b:13:92:5f:ba:b7:7f:54:25:6e:
                    ce:cd:1b:a3:78:92:34:31:7f:9d:dc:80:61:3c:72:
                    69:6d:b8:35:a8:f8:1f:03:6c:e5:d7:41:53:24:84:
                    8a:72:70:3c:e2:39:8b:ec:70:9d:d3:cf:2e:08:f6:
                    05:80:af:36:8f:ed:8e:ef:df:50:33:94:58:15:8f:
                    87:c4:b4:65:3d:a1:d1:23:00:6a:67:35:60:06:58:
                    bd:43:8a:86:52:29:f4:a1:e1:5f:7f:59:6e:ca:4a:
                    78:16:9d:da:04:d9:61:d4:a3:ea:69:72:7f:1b:aa:
                    ff:c8:07:51:13:50:c1:3e:7d:9b:f7:70:dc:ba:5d:
                    94:a9:2b:ac:ea:56:e0:3c:7f:5d:91:ef:bd:82:25:
                    f2:37:eb:2c:d9:ad:b7:dd:3e:bc:86:7a:af:89:8f:
                    f9:32:5e:9c:d0:41:0c:8c:b7:84:5e:29:e9:4f:fc:
                    b5:5c:f4:f9:82:32:b9:35:ed:84:0a:32:23:32:b5:
                    a4:b1:c8:c5:a0:16:b5:77:8d:21:8f:53:80:c4:a1:
                    a4:65:ee:af:0a:84:1d:34:30:e3:07:35:ce:16:8e:
                    69:7b:b7:21:91:56:26:c2:d7:3f:79:0e:e0:b2:77:
                    a5:ca:60:88:15:30:8f:65:aa:8f:9d:9f:d0:50:3d:
                    2a:9b:4f:61:ca:43:19:b9:69:58:1b:98:77:43:42:
                    1e:08:7c:30:58:52:d4:b3:eb:d1:a2:9e:28:dd:1b:
                    96:fd:f9:28:fd:76:d8:ec:91:21:d1:8d:42:4c:f5:
                    05:70:2e:d2:bb:9a:c5:c8:e1:77:5d:4e:5f:c2:ab:
                    9f:c0:75:51:11:6e:ea:6b:0e:d4:bc:93:de:a4:95:
                    e3:d2:52:57:ac:74:c5:a6:e5:a2:94:3f:d8:43:0e:
                    42:8c:75:ad:0c:69:d1:a8:8e:e7:49:77:2b:38:af:
                    c9:ac:43:77:27:90:82:1d:62:e6:31:a0:1b:17:be:
                    7e:63:2c:29:ec:1b:3d:4b:52:39:ec:7a:2a:fc:48:
                    2f:bd:ce:d9:1f:21:02:fb:2c:6e:d9:40:14:c5:6a:
                    ce:20:bc:0c:e4:ae:87:35:d2:da:5f:db:95:50:f3:
                    e3:ed:2c:93:ad:42:5b:af:65:fe:f8:4b:0a:dc:60:
                    7f:dd:48:38:88:d0:fc:a4:aa:fc:5f:07:97:cf:ae:
                    b7:43:3d:87:eb:be:51:e3:f1:8c:1f:63:43:29:24:
                    8c:94:23
                Exponent: 65537 (0x10001)
        X509v3 extensions:
            X509v3 Basic Constraints: 
            CA:TRUE
            Netscape Comment: 
            OpenSSL Generated Certificate
            X509v3 Subject Key Identifier: 
            90:35:36:11:52:F9:00:65:FC:71:E7:73:B0:91:ED:0B:19:84:C6:28
            X509v3 Authority Key Identifier: 
            keyid:FE:E4:EC:53:24:F0:95:95:C7:10:B5:E1:44:B5:5D:39:65:5A:E3:7E
            DirName:/C=US/ST=California/O=XML Security Library (http://www.aleksey.com/xmlsec)/OU=Test Root Certificate/CN=Aleksey Sanin/emailAddress=xmlsec@aleksey.com
            serial:D6:8E:B8:E0:91:82:2C:F8

    Signature Algorithm: sha1WithRSAEncryption
        79:cd:41:fc:f0:66:13:f1:76:bd:22:51:dd:91:2f:7a:46:fd:
        b0:ea:44:e6:73:5d:ac:00:2d:6e:0c:90:a5:e1:3b:f2:4c:75:
        79:12:08:eb:7f:fa:82:7d:e0:f7:76:db:63:6c:07:e9:65:0a:
        98:88:4e:b1:0f:d2:57:3d:df:4f
-----BEGIN CERTIFICATE-----
MIIFmTCCBUOgAwIBAgIJANaOuOCRgiz8MA0GCSqGSIb3DQEBBQUAMIHIMQswCQYD
VQQGEwJVUzETMBEGA1UECBMKQ2FsaWZvcm5pYTE9MDsGA1UEChM0WE1MIFNlY3Vy
aXR5IExpYnJhcnkgKGh0dHA6Ly93d3cuYWxla3NleS5jb20veG1sc2VjKTEqMCgG
A1UECxMhVGVzdCBTZWNvbmQgTGV2ZWwgUlNBIENlcnRpZmljYXRlMRYwFAYDVQQD
Ew1BbGVrc2V5IFNhbmluMSEwHwYJKoZIhvcNAQkBFhJ4bWxzZWNAYWxla3NleS5j
b20wHhcNMDUwNzExMDI1MDExWhcNMTUwNzA5MDI1MDExWjCBuTELMAkGA1UEBhMC
VVMxEzARBgNVBAgTCkNhbGlmb3JuaWExPTA7BgNVBAoTNFhNTCBTZWN1cml0eSBM
aWJyYXJ5IChodHRwOi8vd3d3LmFsZWtzZXkuY29tL3htbHNlYykxGzAZBgNVBAsT
ElRlc3QgTGFyZ2UgUlNBIEtleTEWMBQGA1UEAxMNQWxla3NleSBTYW5pbjEhMB8G
CSqGSIb3DQEJARYSeG1sc2VjQGFsZWtzZXkuY29tMIICIjANBgkqhkiG9w0BAQEF
AAOCAg8AMIICCgKCAgEA82H5NlSuXRdoGxgoJHJOOV2/IBfIfCBZ+6NC5Cy3DW2X
fuGbulnD5+hk/3Y1WOCQ+isTkl+6t39UJW7OzRujeJI0MX+d3IBhPHJpbbg1qPgf
A2zl10FTJISKcnA84jmL7HCd088uCPYFgK82j+2O799QM5RYFY+HxLRlPaHRIwBq
ZzVgBli9Q4qGUin0oeFff1luykp4Fp3aBNlh1KPqaXJ/G6r/yAdRE1DBPn2b93Dc
ul2UqSus6lbgPH9dke+9giXyN+ss2a233T68hnqviY/5Ml6c0EEMjLeEXinpT/y1
XPT5gjK5Ne2ECjIjMrWkscjFoBa1d40hj1OAxKGkZe6vCoQdNDDjBzXOFo5pe7ch
kVYmwtc/eQ7gsnelymCIFTCPZaqPnZ/QUD0qm09hykMZuWlYG5h3Q0IeCHwwWFLU
s+vRop4o3RuW/fko/XbY7JEh0Y1CTPUFcC7Su5rFyOF3XU5fwqufwHVREW7qaw7U
vJPepJXj0lJXrHTFpuWilD/YQw5CjHWtDGnRqI7nSXcrOK/JrEN3J5CCHWLmMaAb
F75+Yywp7Bs9S1I57Hoq/Egvvc7ZHyEC+yxu2UAUxWrOILwM5K6HNdLaX9uVUPPj
7SyTrUJbr2X++EsK3GB/3Ug4iND8pKr8XweXz663Qz2H675R4/GMH2NDKSSMlCMC
AwEAAaOCAVMwggFPMAwGA1UdEwQFMAMBAf8wLAYJYIZIAYb4QgENBB8WHU9wZW5T
U0wgR2VuZXJhdGVkIENlcnRpZmljYXRlMB0GA1UdDgQWBBSQNTYRUvkAZfxx53Ow
ke0LGYTGKDCB8QYDVR0jBIHpMIHmgBT+5OxTJPCVlccQteFEtV05ZVrjfqGBwqSB
vzCBvDELMAkGA1UEBhMCVVMxEzARBgNVBAgTCkNhbGlmb3JuaWExPTA7BgNVBAoT
NFhNTCBTZWN1cml0eSBMaWJyYXJ5IChodHRwOi8vd3d3LmFsZWtzZXkuY29tL3ht
bHNlYykxHjAcBgNVBAsTFVRlc3QgUm9vdCBDZXJ0aWZpY2F0ZTEWMBQGA1UEAxMN
QWxla3NleSBTYW5pbjEhMB8GCSqGSIb3DQEJARYSeG1sc2VjQGFsZWtzZXkuY29t
ggkA1o644JGCLPgwDQYJKoZIhvcNAQEFBQADQQB5zUH88GYT8Xa9IlHdkS96Rv2w
6kTmc12sAC1uDJCl4TvyTHV5Egjrf/qCfeD3dttjbAfpZQqYiE6xD9JXPd9P
-----END CERTIFICATE-----
