Certificate:
    Data:
        Version: 3 (0x2)
        Serial Number:
            af:a2:8b:b9:33:ad:da:c1
        Signature Algorithm: sha1WithRSAEncryption
        Issuer: C=US, ST=California, O=XML Security Library (http:\/\/www.aleksey.com\/xmlsec), CN=Aleksey Sanin/emailAddress=xmlsec@aleksey.com
        Validity
            Not Before: Dec 20 05:26:07 2025 GMT
            Not After : Nov 26 05:26:07 2125 GMT
        Subject: C=US, ST=California, O=XML Security Library (http:\/\/www.aleksey.com\/xmlsec), CN=ML-DSA-44 Key/emailAddress=xmlsec@aleksey.com
        Subject Public Key Info:
            Public Key Algorithm: ML-DSA-44
                ML-DSA-44 Public-Key:
                pub:
                    86:64:91:a8:2e:a7:4c:cf:a7:c1:4b:7f:fb:9b:5f:
                    a7:1c:29:60:30:21:67:4c:03:77:e5:35:a8:c3:84:
                    40:6e:26:b5:a9:fc:99:30:bc:42:e1:84:73:5e:2d:
                    64:b2:8d:40:33:21:a7:d4:60:b2:52:6e:53:51:a7:
                    e1:4b:62:b7:71:35:0f:9f:c6:c7:81:53:91:c2:31:
                    67:da:24:ca:98:0e:4f:0f:90:f7:36:17:ac:7e:0f:
                    5d:34:f9:bf:28:c9:89:ce:99:4c:9f:81:bf:9b:b8:
                    b4:50:f3:33:5e:3b:40:2f:6d:8d:5a:af:37:32:74:
                    4c:db:30:0c:da:d2:aa:55:a7:09:94:bb:ec:19:71:
                    84:90:cb:ff:61:48:fa:7d:25:c8:21:2b:20:b1:6f:
                    92:16:7e:09:cd:c6:b1:56:31:5e:f6:98:10:ea:16:
                    97:15:10:69:47:64:9f:9a:99:7a:ae:78:53:25:e1:
                    6c:99:21:bc:48:d8:b2:65:4a:c3:be:f9:00:01:fa:
                    16:ae:75:fe:67:6a:5f:d2:31:d8:04:7c:45:d9:8c:
                    9c:07:a8:25:9f:19:e2:71:dd:ab:35:0f:f9:d1:31:
                    9b:b8:13:e3:41:76:05:e2:f6:78:3d:28:f4:cc:65:
                    5b:b9:4a:9e:f8:d1:e1:d4:23:fb:aa:c1:c2:06:01:
                    ce:e7:97:7b:6a:74:d3:61:91:66:eb:9e:91:54:61:
                    50:36:f1:f3:19:7b:5b:30:be:35:33:21:1f:16:d0:
                    95:c2:79:e1:84:af:d5:65:d0:0d:4b:cc:e8:7f:0e:
                    5f:03:64:16:7b:95:8b:c3:f1:58:09:7e:ea:87:f8:
                    bd:40:37:64:0b:55:ea:2d:46:5c:26:ac:1f:29:16:
                    9f:4f:4c:54:d2:18:ed:52:4f:fe:e2:94:3e:28:94:
                    74:d6:16:39:b4:1a:7e:35:d5:7a:4f:d0:b7:c1:39:
                    1d:01:ab:a1:b0:48:12:a7:48:99:12:b3:0a:f8:8a:
                    8a:81:64:af:2f:c6:f1:f3:6e:18:37:0a:1d:e3:f4:
                    ad:fe:00:43:94:0a:7c:c6:a1:b8:ed:96:94:06:1a:
                    60:29:68:10:ca:df:58:fd:f5:bf:5a:9d:b3:e1:8f:
                    99:5c:b3:bf:c5:98:e3:f0:9c:1e:f7:70:a0:b7:34:
                    4a:18:a6:4d:3c:9c:0d:11:83:0c:a5:17:91:7e:81:
                    24:ab:71:eb:a1:fa:fa:36:bc:3e:f2:34:71:9b:98:
                    ff:c5:8c:05:c9:94:75:1f:54:e9:e6:e3:b4:59:26:
                    f1:a3:fa:af:f4:46:b7:9d:00:53:6e:99:75:f3:8f:
                    81:87:60:3f:88:12:fb:7e:9e:06:ce:9f:8f:29:82:
                    17:ae:56:48:b5:b2:67:a1:33:68:a7:e7:ed:b7:e8:
                    18:5a:02:d8:57:8d:bb:84:04:88:ac:be:c2:04:3e:
                    63:8c:9d:8e:a8:f2:d8:45:33:e5:a1:91:ee:4b:cc:
                    c9:6b:64:9b:f8:f0:70:36:bc:4f:b0:c5:64:69:2c:
                    9d:cf:0d:f3:db:71:34:54:fd:01:22:e1:c0:d0:42:
                    80:3e:cd:44:35:33:9b:25:fb:6f:bc:35:81:52:3c:
                    c9:80:b5:45:72:14:da:ef:ee:86:7f:f7:97:cc:67:
                    06:a7:c2:80:26:75:f5:fc:8c:90:6c:9d:72:c8:76:
                    08:30:64:6c:57:98:f8:e2:50:c2:1e:0f:65:0c:5f:
                    cb:4e:5a:71:5e:4a:e0:57:43:a7:7b:50:f0:77:9d:
                    f7:42:3c:d7:5c:03:33:00:6c:c6:67:d7:ac:d4:41:
                    5e:3d:10:b2:31:6b:2a:06:61:22:ce:64:a7:e0:8f:
                    52:87:f7:57:d2:5c:9c:56:43:c6:e5:25:f6:96:ea:
                    b7:b2:67:3f:21:c3:4e:bb:1a:de:ad:58:dc:12:3e:
                    6c:62:46:f4:2c:29:2c:cb:31:5b:9c:d1:ae:cb:32:
                    64:c5:f4:49:10:0c:64:2c:58:bd:7a:f7:dd:a8:6f:
                    8a:71:68:00:93:9c:f6:9c:81:77:a0:16:9b:f2:cb:
                    10:b6:2d:07:f5:01:79:61:8d:a1:98:86:46:34:f4:
                    98:c5:19:74:18:07:d1:34:68:2f:74:4a:5b:ba:36:
                    09:28:e0:c3:bc:cf:fb:d6:b1:53:4c:0d:8a:bf:86:
                    67:e1:d8:59:a1:91:8d:5e:22:4d:25:a4:bc:f4:79:
                    3e:89:4e:16:73:78:1d:e8:f4:59:9c:36:e2:97:a4:
                    f0:7a:76:b3:95:a9:9c:d6:c5:40:d7:18:f3:d8:d8:
                    5a:a3:70:8c:3e:f4:67:a0:85:59:1e:24:d7:bf:2c:
                    2b:c9:65:3d:4c:eb:5c:4e:88:d0:89:08:c1:04:5b:
                    99:ed:3e:ab:69:df:ab:23:06:46:2f:b3:b8:b5:f3:
                    73:e3:d1:ea:29:f4:61:c4:21:3e:d1:35:eb:e3:c3:
                    9e:d7:9e:7e:c1:9c:f1:ec:62:6d:4d:66:26:84:53:
                    53:45:d0:73:40:33:80:62:14:a5:59:4d:2b:5b:ce:
                    e7:56:4f:aa:be:89:1f:c0:10:79:90:58:d3:3a:5e:
                    15:3c:49:5b:49:c0:3b:e7:cb:08:c0:3e:97:b5:cc:
                    06:68:3c:bb:a9:05:42:b1:b1:03:d8:5f:c0:3f:d1:
                    14:5e:11:05:e9:b2:b2:19:0c:6e:ed:7c:3a:29:1a:
                    87:2e:01:d2:75:87:09:c9:5b:10:75:cc:4e:7e:73:
                    b1:c8:d8:40:d0:d0:c9:59:10:27:a1:3c:56:c3:67:
                    61:b1:d1:1a:a6:48:5d:bb:73:13:b3:39:96:dd:01:
                    ae:aa:57:64:e6:dc:9c:fd:cc:d4:51:32:da:1b:b2:
                    a8:36:96:ba:cb:36:1d:4d:e8:d1:9e:00:0d:6b:d2:
                    a1:ef:39:ca:23:73:c1:8f:55:fa:97:d0:0a:6a:9d:
                    9e:19:9e:56:d7:cd:e9:e1:e3:27:a4:5f:d7:ee:e9:
                    01:92:60:0c:9e:95:cd:3c:00:bb:6e:49:7f:b6:81:
                    09:20:80:10:55:9b:61:7a:e0:86:56:be:da:75:c3:
                    a0:0d:20:4f:c9:27:4c:4a:fa:c4:81:91:c0:7a:53:
                    22:a4:d6:e3:1d:fc:3b:fd:a3:e7:5d:9c:a8:53:02:
                    a2:f8:4a:b5:db:13:bc:1d:ba:9e:38:d3:b6:92:66:
                    2a:d3:fb:66:45:18:95:24:29:8d:3f:cd:96:21:57:
                    02:85:10:50:7e:d8:a4:69:d8:9e:58:70:39:0e:3b:
                    f0:2e:72:79:25:2c:ea:23:de:a9:a5:48:a8:14:b5:
                    9e:f9:af:66:c4:e3:ae:ad:7e:cf:c5:61:9f:b6:33:
                    c7:60:7b:a6:f4:17:05:b7:4c:24:1b:73:b0:2f:1d:
                    f5:aa:d6:d5:86:50:67:e8:be:0c:c5:36:0b:5f:3c:
                    f7:8d:82:dd:4a:bc:f9:df:9a:85:d6:54:bd:0b:18:
                    c0:bb:e8:a7:f8:98:4e:e9:a5:90:3f:6e:01:81:d5:
                    27:58:65:f2:76:c7:b2
        X509v3 extensions:
            X509v3 Basic Constraints: 
                CA:TRUE
            Netscape Comment: 
                OpenSSL Generated Certificate
            X509v3 Subject Key Identifier: 
                02:2B:5A:0F:02:88:A7:7A:74:5C:3B:6C:1B:43:E0:9D:2B:01:56:55
            X509v3 Authority Key Identifier: 
                keyid:FE:E4:EC:53:24:F0:95:95:C7:10:B5:E1:44:B5:5D:39:65:5A:E3:7E
                DirName:/C=US/ST=California/O=XML Security Library (http:\/\/www.aleksey.com\/xmlsec)/OU=Root CA/CN=Aleksey Sanin/emailAddress=xmlsec@aleksey.com
                serial:AF:A2:8B:B9:33:AD:DA:AD
    Signature Algorithm: sha1WithRSAEncryption
    Signature Value:
        65:1d:8a:e9:b9:98:9e:81:38:e9:62:b8:31:0b:8a:af:9d:80:
        c4:da:ad:c0:02:79:1a:14:91:04:95:ba:b9:55:89:bd:ca:13:
        c7:f3:6a:3e:d5:f9:1a:2f:95:82:58:1e:e7:1f:8b:f0:3f:9f:
        9c:4e:8f:18:58:84:b9:93:ff:d4
-----BEGIN CERTIFICATE-----
MIIIVDCCB/6gAwIBAgIJAK+ii7kzrdrBMA0GCSqGSIb3DQEBBQUAMIGcMQswCQYD
VQQGEwJVUzETMBEGA1UECBMKQ2FsaWZvcm5pYTE9MDsGA1UEChM0WE1MIFNlY3Vy
aXR5IExpYnJhcnkgKGh0dHA6Ly93d3cuYWxla3NleS5jb20veG1sc2VjKTEWMBQG
A1UEAxMNQWxla3NleSBTYW5pbjEhMB8GCSqGSIb3DQEJARYSeG1sc2VjQGFsZWtz
ZXkuY29tMCAXDTI1MTIyMDA1MjYwN1oYDzIxMjUxMTI2MDUyNjA3WjCBnDELMAkG
A1UEBhMCVVMxEzARBgNVBAgTCkNhbGlmb3JuaWExPTA7BgNVBAoTNFhNTCBTZWN1
cml0eSBMaWJyYXJ5IChodHRwOi8vd3d3LmFsZWtzZXkuY29tL3htbHNlYykxFjAU
BgNVBAMTDU1MLURTQS00NCBLZXkxITAfBgkqhkiG9w0BCQEWEnhtbHNlY0BhbGVr
c2V5LmNvbTCCBTIwCwYJYIZIAWUDBAMRA4IFIQCGZJGoLqdMz6fBS3/7m1+nHClg
MCFnTAN35TWow4RAbia1qfyZMLxC4YRzXi1kso1AMyGn1GCyUm5TUafhS2K3cTUP
n8bHgVORwjFn2iTKmA5PD5D3Nhesfg9dNPm/KMmJzplMn4G/m7i0UPMzXjtAL22N
Wq83MnRM2zAM2tKqVacJlLvsGXGEkMv/YUj6fSXIISsgsW+SFn4JzcaxVjFe9pgQ
6haXFRBpR2Sfmpl6rnhTJeFsmSG8SNiyZUrDvvkAAfoWrnX+Z2pf0jHYBHxF2Yyc
B6glnxnicd2rNQ/50TGbuBPjQXYF4vZ4PSj0zGVbuUqe+NHh1CP7qsHCBgHO55d7
anTTYZFm656RVGFQNvHzGXtbML41MyEfFtCVwnnhhK/VZdANS8zofw5fA2QWe5WL
w/FYCX7qh/i9QDdkC1XqLUZcJqwfKRafT0xU0hjtUk/+4pQ+KJR01hY5tBp+NdV6
T9C3wTkdAauhsEgSp0iZErMK+IqKgWSvL8bx824YNwod4/St/gBDlAp8xqG47ZaU
BhpgKWgQyt9Y/fW/Wp2z4Y+ZXLO/xZjj8Jwe93CgtzRKGKZNPJwNEYMMpReRfoEk
q3Hrofr6Nrw+8jRxm5j/xYwFyZR1H1Tp5uO0WSbxo/qv9Ea3nQBTbpl184+Bh2A/
iBL7fp4Gzp+PKYIXrlZItbJnoTNop+ftt+gYWgLYV427hASIrL7CBD5jjJ2OqPLY
RTPloZHuS8zJa2Sb+PBwNrxPsMVkaSydzw3z23E0VP0BIuHA0EKAPs1ENTObJftv
vDWBUjzJgLVFchTa7+6Gf/eXzGcGp8KAJnX1/IyQbJ1yyHYIMGRsV5j44lDCHg9l
DF/LTlpxXkrgV0One1Dwd533QjzXXAMzAGzGZ9es1EFePRCyMWsqBmEizmSn4I9S
h/dX0lycVkPG5SX2luq3smc/IcNOuxrerVjcEj5sYkb0LCksyzFbnNGuyzJkxfRJ
EAxkLFi9evfdqG+KcWgAk5z2nIF3oBab8ssQti0H9QF5YY2hmIZGNPSYxRl0GAfR
NGgvdEpbujYJKODDvM/71rFTTA2Kv4Zn4dhZoZGNXiJNJaS89Hk+iU4Wc3gd6PRZ
nDbil6Twenazlamc1sVA1xjz2Nhao3CMPvRnoIVZHiTXvywryWU9TOtcTojQiQjB
BFuZ7T6rad+rIwZGL7O4tfNz49HqKfRhxCE+0TXr48Oe155+wZzx7GJtTWYmhFNT
RdBzQDOAYhSlWU0rW87nVk+qvokfwBB5kFjTOl4VPElbScA758sIwD6XtcwGaDy7
qQVCsbED2F/AP9EUXhEF6bKyGQxu7Xw6KRqHLgHSdYcJyVsQdcxOfnOxyNhA0NDJ
WRAnoTxWw2dhsdEapkhdu3MTszmW3QGuqldk5tyc/czUUTLaG7KoNpa6yzYdTejR
ngANa9Kh7znKI3PBj1X6l9AKap2eGZ5W183p4eMnpF/X7ukBkmAMnpXNPAC7bkl/
toEJIIAQVZtheuCGVr7adcOgDSBPySdMSvrEgZHAelMipNbjHfw7/aPnXZyoUwKi
+Eq12xO8HbqeONO2kmYq0/tmRRiVJCmNP82WIVcChRBQftikadieWHA5DjvwLnJ5
JSzqI96ppUioFLWe+a9mxOOurX7PxWGftjPHYHum9BcFt0wkG3OwLx31qtbVhlBn
6L4MxTYLXzz3jYLdSrz535qF1lS9CxjAu+in+JhO6aWQP24BgdUnWGXydseyo4IB
RTCCAUEwDAYDVR0TBAUwAwEB/zAsBglghkgBhvhCAQ0EHxYdT3BlblNTTCBHZW5l
cmF0ZWQgQ2VydGlmaWNhdGUwHQYDVR0OBBYEFAIrWg8CiKd6dFw7bBtD4J0rAVZV
MIHjBgNVHSMEgdswgdiAFP7k7FMk8JWVxxC14US1XTllWuN+oYG0pIGxMIGuMQsw
CQYDVQQGEwJVUzETMBEGA1UECBMKQ2FsaWZvcm5pYTE9MDsGA1UEChM0WE1MIFNl
Y3VyaXR5IExpYnJhcnkgKGh0dHA6Ly93d3cuYWxla3NleS5jb20veG1sc2VjKTEQ
MA4GA1UECxMHUm9vdCBDQTEWMBQGA1UEAxMNQWxla3NleSBTYW5pbjEhMB8GCSqG
SIb3DQEJARYSeG1sc2VjQGFsZWtzZXkuY29tggkAr6KLuTOt2q0wDQYJKoZIhvcN
AQEFBQADQQBlHYrpuZiegTjpYrgxC4qvnYDE2q3AAnkaFJEElbq5VYm9yhPH82o+
1fkaL5WCWB7nH4vwP5+cTo8YWIS5k//U
-----END CERTIFICATE-----
