Certificate:
    Data:
        Version: 3 (0x2)
        Serial Number:
            d6:8e:b8:e0:91:82:2c:fa
        Signature Algorithm: sha1WithRSAEncryption
        Issuer: C=US, ST=California, O=XML Security Library (http://www.aleksey.com/xmlsec), OU=Test Second Level RSA Certificate, CN=Aleksey Sanin/emailAddress=xmlsec@aleksey.com
        Validity
            Not Before: Jul 10 02:33:02 2005 GMT
            Not After : Jul  8 02:33:02 2015 GMT
        Subject: C=US, ST=California, O=XML Security Library (http://www.aleksey.com/xmlsec), OU=Test Third Level RSA Certificate, CN=Aleksey Sanin/emailAddress=xmlsec@aleksey.com
        Subject Public Key Info:
            Public Key Algorithm: rsaEncryption
            RSA Public Key: (512 bit)
                Modulus (512 bit):
                    00:d3:d0:6d:0f:76:9e:56:de:83:54:39:24:d1:d2:
                    3b:56:1e:cb:8e:a7:67:b1:89:96:d2:d6:c3:57:1c:
                    4a:fa:7b:a6:7b:e6:7d:49:be:33:9d:b5:0a:91:69:
                    7e:be:04:00:4d:d4:54:13:28:53:d8:ff:86:aa:b7:
                    74:50:1c:d8:7d
                Exponent: 65537 (0x10001)
        X509v3 extensions:
            X509v3 Basic Constraints: 
                CA:TRUE
            Netscape Comment: 
                OpenSSL Generated Certificate
            X509v3 Subject Key Identifier: 
                D7:F4:C6:46:77:CE:37:04:23:AD:29:54:FB:B0:0E:A4:CC:43:28:19
            X509v3 Authority Key Identifier: 
                keyid:FE:E4:EC:53:24:F0:95:95:C7:10:B5:E1:44:B5:5D:39:65:5A:E3:7E
                DirName:/C=US/ST=California/O=XML Security Library (http://www.aleksey.com/xmlsec)/OU=Test Root Certificate/CN=Aleksey Sanin/emailAddress=xmlsec@aleksey.com
                serial:D6:8E:B8:E0:91:82:2C:F8

    Signature Algorithm: sha1WithRSAEncryption
        47:e3:be:65:b0:8b:68:01:a5:8b:7b:6f:01:7a:a0:78:85:2e:
        82:21:e6:48:8b:00:fa:e5:38:50:1b:3d:99:4b:0e:aa:f9:f9:
        e0:dc:af:57:1f:d2:99:2c:81:6e:df:54:4f:4d:cd:34:a6:c2:
        30:c5:b8:47:0f:a8:95:7a:d8:49
-----BEGIN CERTIFICATE-----
MIID3zCCA4mgAwIBAgIJANaOuOCRgiz6MA0GCSqGSIb3DQEBBQUAMIHIMQswCQYD
VQQGEwJVUzETMBEGA1UECBMKQ2FsaWZvcm5pYTE9MDsGA1UEChM0WE1MIFNlY3Vy
aXR5IExpYnJhcnkgKGh0dHA6Ly93d3cuYWxla3NleS5jb20veG1sc2VjKTEqMCgG
A1UECxMhVGVzdCBTZWNvbmQgTGV2ZWwgUlNBIENlcnRpZmljYXRlMRYwFAYDVQQD
Ew1BbGVrc2V5IFNhbmluMSEwHwYJKoZIhvcNAQkBFhJ4bWxzZWNAYWxla3NleS5j
b20wHhcNMDUwNzEwMDIzMzAyWhcNMTUwNzA4MDIzMzAyWjCBxzELMAkGA1UEBhMC
VVMxEzARBgNVBAgTCkNhbGlmb3JuaWExPTA7BgNVBAoTNFhNTCBTZWN1cml0eSBM
aWJyYXJ5IChodHRwOi8vd3d3LmFsZWtzZXkuY29tL3htbHNlYykxKTAnBgNVBAsT
IFRlc3QgVGhpcmQgTGV2ZWwgUlNBIENlcnRpZmljYXRlMRYwFAYDVQQDEw1BbGVr
c2V5IFNhbmluMSEwHwYJKoZIhvcNAQkBFhJ4bWxzZWNAYWxla3NleS5jb20wXDAN
BgkqhkiG9w0BAQEFAANLADBIAkEA09BtD3aeVt6DVDkk0dI7Vh7LjqdnsYmW0tbD
VxxK+nume+Z9Sb4znbUKkWl+vgQATdRUEyhT2P+Gqrd0UBzYfQIDAQABo4IBUzCC
AU8wDAYDVR0TBAUwAwEB/zAsBglghkgBhvhCAQ0EHxYdT3BlblNTTCBHZW5lcmF0
ZWQgQ2VydGlmaWNhdGUwHQYDVR0OBBYEFNf0xkZ3zjcEI60pVPuwDqTMQygZMIHx
BgNVHSMEgekwgeaAFP7k7FMk8JWVxxC14US1XTllWuN+oYHCpIG/MIG8MQswCQYD
VQQGEwJVUzETMBEGA1UECBMKQ2FsaWZvcm5pYTE9MDsGA1UEChM0WE1MIFNlY3Vy
aXR5IExpYnJhcnkgKGh0dHA6Ly93d3cuYWxla3NleS5jb20veG1sc2VjKTEeMBwG
A1UECxMVVGVzdCBSb290IENlcnRpZmljYXRlMRYwFAYDVQQDEw1BbGVrc2V5IFNh
bmluMSEwHwYJKoZIhvcNAQkBFhJ4bWxzZWNAYWxla3NleS5jb22CCQDWjrjgkYIs
+DANBgkqhkiG9w0BAQUFAANBAEfjvmWwi2gBpYt7bwF6oHiFLoIh5kiLAPrlOFAb
PZlLDqr5+eDcr1cf0pksgW7fVE9NzTSmwjDFuEcPqJV62Ek=
-----END CERTIFICATE-----
