Certificate:
    Data:
        Version: 3 (0x2)
        Serial Number: 1 (0x1)
        Signature Algorithm: md5WithRSAEncryption
        Issuer: C=US, ST=California, L=Sunnyvale, O=XML Security Library (http://www.aleksey.com/xmlsec), OU=Root Certificate, CN=Aleksey Sanin/emailAddress=xmlsec@aleksey.com
        Validity
            Not Before: Feb  2 08:00:59 2002 GMT
            Not After : Jan 31 08:00:59 2012 GMT
        Subject: C=US, ST=California, O=XML Security Library (http://www.aleksey.com/xmlsec), OU=Second Level Certificate, CN=Aleksey Sanin/emailAddress=xmlsec@aleksey.com
        Subject Public Key Info:
            Public Key Algorithm: rsaEncryption
            RSA Public Key: (512 bit)
                Modulus (512 bit):
                    00:c8:2e:eb:aa:1c:0a:f2:7f:21:d8:05:b6:87:a7:
                    cb:a3:15:fb:32:94:18:60:47:54:b9:df:8e:b3:e4:
                    39:cc:f5:e6:7e:8b:60:72:f5:61:93:57:28:17:7e:
                    26:6e:1f:0b:b7:ad:31:61:71:af:4e:ea:c5:4f:39:
                    c0:6e:15:3a:e7
                Exponent: 65537 (0x10001)
        X509v3 extensions:
            X509v3 Basic Constraints: 
            CA:FALSE
            Netscape Comment: 
            OpenSSL Generated Certificate
            X509v3 Subject Key Identifier: 
            78:D7:2D:91:61:2F:95:22:4A:BB:E1:D5:3D:C6:26:AF:AB:97:D2:04
            X509v3 Authority Key Identifier: 
            keyid:B4:B9:EF:9A:E6:97:0E:68:65:1E:98:CE:FA:55:0D:89:06:DB:4C:7C
            DirName:/C=US/ST=California/L=Sunnyvale/O=XML Security Library (http://www.aleksey.com/xmlsec)/OU=Root Certificate/CN=Aleksey Sanin/emailAddress=xmlsec@aleksey.com
            serial:00

    Signature Algorithm: md5WithRSAEncryption
        71:24:77:dd:31:b7:13:3a:95:16:25:d4:2b:58:dc:c7:6d:0b:
        72:1c:c4:9d:2d:21:d3:00:b2:21:d7:43:91:86:5b:41:5d:26:
        1e:bc:9c:b0:5e:66:33:d8:5e:f4:f3:45:ae:10:3c:5d:1e:e5:
        32:b0:bf:04:28:f9:4c:ec:b4:53:26:8a:2a:57:23:38:b7:ad:
        f9:51:a3:18:b2:6f:b8:4b:40:38:83:da:56:b4:70:34:49:47:
        ea:f6:ae:a1:8a:1c:e6:57:10:c0:ec:bc:23:d7:de:0e:6d:13:
        4c:58:52:0b:4e:b7:d4:47:33:84:d3:14:1b:ba:d3:f0:78:c4:
        66:fe
-----BEGIN CERTIFICATE-----
MIIEFzCCA4CgAwIBAgIBATANBgkqhkiG9w0BAQQFADCByzELMAkGA1UEBhMCVVMx
EzARBgNVBAgTCkNhbGlmb3JuaWExEjAQBgNVBAcTCVN1bm55dmFsZTE9MDsGA1UE
ChM0WE1MIFNlY3VyaXR5IExpYnJhcnkgKGh0dHA6Ly93d3cuYWxla3NleS5jb20v
eG1sc2VjKTEZMBcGA1UECxMQUm9vdCBDZXJ0aWZpY2F0ZTEWMBQGA1UEAxMNQWxl
a3NleSBTYW5pbjEhMB8GCSqGSIb3DQEJARYSeG1sc2VjQGFsZWtzZXkuY29tMB4X
DTAyMDIwMjA4MDA1OVoXDTEyMDEzMTA4MDA1OVowgb8xCzAJBgNVBAYTAlVTMRMw
EQYDVQQIEwpDYWxpZm9ybmlhMT0wOwYDVQQKEzRYTUwgU2VjdXJpdHkgTGlicmFy
eSAoaHR0cDovL3d3dy5hbGVrc2V5LmNvbS94bWxzZWMpMSEwHwYDVQQLExhTZWNv
bmQgTGV2ZWwgQ2VydGlmaWNhdGUxFjAUBgNVBAMTDUFsZWtzZXkgU2FuaW4xITAf
BgkqhkiG9w0BCQEWEnhtbHNlY0BhbGVrc2V5LmNvbTBcMA0GCSqGSIb3DQEBAQUA
A0sAMEgCQQDILuuqHAryfyHYBbaHp8ujFfsylBhgR1S5346z5DnM9eZ+i2By9WGT
VygXfiZuHwu3rTFhca9O6sVPOcBuFTrnAgMBAAGjggFXMIIBUzAJBgNVHRMEAjAA
MCwGCWCGSAGG+EIBDQQfFh1PcGVuU1NMIEdlbmVyYXRlZCBDZXJ0aWZpY2F0ZTAd
BgNVHQ4EFgQUeNctkWEvlSJKu+HVPcYmr6uX0gQwgfgGA1UdIwSB8DCB7YAUtLnv
muaXDmhlHpjO+lUNiQbbTHyhgdGkgc4wgcsxCzAJBgNVBAYTAlVTMRMwEQYDVQQI
EwpDYWxpZm9ybmlhMRIwEAYDVQQHEwlTdW5ueXZhbGUxPTA7BgNVBAoTNFhNTCBT
ZWN1cml0eSBMaWJyYXJ5IChodHRwOi8vd3d3LmFsZWtzZXkuY29tL3htbHNlYykx
GTAXBgNVBAsTEFJvb3QgQ2VydGlmaWNhdGUxFjAUBgNVBAMTDUFsZWtzZXkgU2Fu
aW4xITAfBgkqhkiG9w0BCQEWEnhtbHNlY0BhbGVrc2V5LmNvbYIBADANBgkqhkiG
9w0BAQQFAAOBgQBxJHfdMbcTOpUWJdQrWNzHbQtyHMSdLSHTALIh10ORhltBXSYe
vJywXmYz2F7080WuEDxdHuUysL8EKPlM7LRTJooqVyM4t635UaMYsm+4S0A4g9pW
tHA0SUfq9q6hihzmVxDA7Lwj194ObRNMWFILTrfURzOE0xQbutPweMRm/g==
-----END CERTIFICATE-----
