Certificate:
    Data:
        Version: 3 (0x2)
        Serial Number: 1 (0x1)
        Signature Algorithm: md5WithRSAEncryption
        Issuer: C=US, ST=California, L=Sunnyvale, O=http://www.aleksey.com/xmlsec, CN=Aleksey Sanin/Email=aleksey@aleksey.com
        Validity
            Not Before: Mar 29 22:25:03 2002 GMT
            Not After : Mar 29 22:25:03 2003 GMT
        Subject: C=US, ST=California, O=http://www.aleksey.com/xmlsec, OU=Second Level Cert, CN=Aleksey Sanin/Email=aleksey@aleksey.com
        Subject Public Key Info:
            Public Key Algorithm: rsaEncryption
            RSA Public Key: (512 bit)
                Modulus (512 bit):
                    00:c8:2e:eb:aa:1c:0a:f2:7f:21:d8:05:b6:87:a7:
                    cb:a3:15:fb:32:94:18:60:47:54:b9:df:8e:b3:e4:
                    39:cc:f5:e6:7e:8b:60:72:f5:61:93:57:28:17:7e:
                    26:6e:1f:0b:b7:ad:31:61:71:af:4e:ea:c5:4f:39:
                    c0:6e:15:3a:e7
                Exponent: 65537 (0x10001)
        X509v3 extensions:
            X509v3 Basic Constraints: 
                CA:FALSE
            Netscape Comment: 
                OpenSSL Generated Certificate
            X509v3 Subject Key Identifier: 
                78:D7:2D:91:61:2F:95:22:4A:BB:E1:D5:3D:C6:26:AF:AB:97:D2:04
            X509v3 Authority Key Identifier: 
                keyid:77:A9:BA:94:51:EF:29:DD:E8:3D:D7:6B:0F:4A:4A:FA:B8:FF:C6:CD
                DirName:/C=US/ST=California/L=Sunnyvale/O=http://www.aleksey.com/xmlsec/CN=Aleksey Sanin/Email=aleksey@aleksey.com
                serial:00

    Signature Algorithm: md5WithRSAEncryption
        ae:e7:98:0c:14:d8:3c:2b:5b:2d:b3:d7:08:f9:77:3e:ab:44:
        d8:9e:f5:6f:d5:41:c8:77:60:df:9a:1a:5c:eb:15:44:68:ad:
        49:95:7f:83:29:28:a1:5f:0a:78:79:17:e2:5f:cf:b9:42:b5:
        f4:14:4e:35:f8:b1:8b:1f:27:4b:ae:12:ab:c7:c6:3a:97:47:
        2e:2d:1c:ac:3e:20:74:ec:af:d8:01:61:b7:30:72:b8:2e:bf:
        68:8e:82:98:1d:05:9d:e0:fb:67:43:24:21:08:13:1d:6a:c7:
        ff:39:92:32:c3:ec:ba:37:3f:e2:b3:41:63:d4:1f:27:6c:4a:
        48:c3
-----BEGIN CERTIFICATE-----
MIIDmDCCAwGgAwIBAgIBATANBgkqhkiG9w0BAQQFADCBmjELMAkGA1UEBhMCVVMx
EzARBgNVBAgTCkNhbGlmb3JuaWExEjAQBgNVBAcTCVN1bm55dmFsZTEmMCQGA1UE
ChMdaHR0cDovL3d3dy5hbGVrc2V5LmNvbS94bWxzZWMxFjAUBgNVBAMTDUFsZWtz
ZXkgU2FuaW4xIjAgBgkqhkiG9w0BCQEWE2FsZWtzZXlAYWxla3NleS5jb20wHhcN
MDIwMzI5MjIyNTAzWhcNMDMwMzI5MjIyNTAzWjCBojELMAkGA1UEBhMCVVMxEzAR
BgNVBAgTCkNhbGlmb3JuaWExJjAkBgNVBAoTHWh0dHA6Ly93d3cuYWxla3NleS5j
b20veG1sc2VjMRowGAYDVQQLExFTZWNvbmQgTGV2ZWwgQ2VydDEWMBQGA1UEAxMN
QWxla3NleSBTYW5pbjEiMCAGCSqGSIb3DQEJARYTYWxla3NleUBhbGVrc2V5LmNv
bTBcMA0GCSqGSIb3DQEBAQUAA0sAMEgCQQDILuuqHAryfyHYBbaHp8ujFfsylBhg
R1S5346z5DnM9eZ+i2By9WGTVygXfiZuHwu3rTFhca9O6sVPOcBuFTrnAgMBAAGj
ggEmMIIBIjAJBgNVHRMEAjAAMCwGCWCGSAGG+EIBDQQfFh1PcGVuU1NMIEdlbmVy
YXRlZCBDZXJ0aWZpY2F0ZTAdBgNVHQ4EFgQUeNctkWEvlSJKu+HVPcYmr6uX0gQw
gccGA1UdIwSBvzCBvIAUd6m6lFHvKd3oPddrD0pK+rj/xs2hgaCkgZ0wgZoxCzAJ
BgNVBAYTAlVTMRMwEQYDVQQIEwpDYWxpZm9ybmlhMRIwEAYDVQQHEwlTdW5ueXZh
bGUxJjAkBgNVBAoTHWh0dHA6Ly93d3cuYWxla3NleS5jb20veG1sc2VjMRYwFAYD
VQQDEw1BbGVrc2V5IFNhbmluMSIwIAYJKoZIhvcNAQkBFhNhbGVrc2V5QGFsZWtz
ZXkuY29tggEAMA0GCSqGSIb3DQEBBAUAA4GBAK7nmAwU2DwrWy2z1wj5dz6rRNie
9W/VQch3YN+aGlzrFURorUmVf4MpKKFfCnh5F+Jfz7lCtfQUTjX4sYsfJ0uuEqvH
xjqXRy4tHKw+IHTsr9gBYbcwcrguv2iOgpgdBZ3g+2dDJCEIEx1qx/85kjLD7Lo3
P+KzQWPUHydsSkjD
-----END CERTIFICATE-----
