Certificate:
    Data:
        Version: 3 (0x2)
        Serial Number: 2 (0x2)
        Signature Algorithm: md5WithRSAEncryption
        Issuer: C=US, ST=California, O=XML Security Library (http://www.aleksey.com/xmlsec), OU=Second Level Certificate, CN=Aleksey Sanin/emailAddress=xmlsec@aleksey.com
        Validity
            Not Before: Feb  2 08:01:27 2002 GMT
            Not After : Jan 31 08:01:27 2012 GMT
        Subject: C=US, ST=California, O=XML Security Library (http://www.aleksey.com/xmlsec), OU=Third Level DSA Certificate, CN=Aleksey Sanin/emailAddress=xmlsec@aleksey.com
        Subject Public Key Info:
            Public Key Algorithm: dsaEncryption
            DSA Public Key:
                pub: 
                    3a:7f:8a:04:91:37:ab:54:d1:84:6f:51:b2:93:57:
                    d3:55:48:e4:2d:15:cd:2c:b8:37:f4:32:0b:86:33:
                    10:43:68:ab:71:89:90:a1:c8:62:af:a0:ae:af:59:
                    a9:5f:71:83:61:9e:a3:fd:e6:aa:17:5c:10:d3:ad:
                    61:19:96:11:f3:99:26:3d:7c:a2:e9:03:e9:33:5c:
                    79:84:59:e0:78:c7:8c:ad:d6:63:7c:0a:d8:e5:7a:
                    40:e9:72:fa:4d:df:c6:01:10:a4:ff:fb:22:50:a4:
                    6b:96:08:08:bb:87:5e:b6:ea:8e:7e:5b:d1:77:0a:
                    f4:bd:86:0e:d5:8e:ca:3b
                P:   
                    00:8a:65:ba:29:80:4f:61:70:1f:ea:2b:52:02:e6:
                    2c:d5:a2:cf:7e:cf:3f:bc:11:22:ba:cb:ff:a6:5d:
                    57:32:2b:8c:bc:1e:ef:ca:22:60:4a:3f:3f:35:39:
                    11:72:2f:d4:5f:fa:d5:5e:ff:2b:6c:24:63:bd:81:
                    57:df:1e:7f:e7:77:f8:85:ce:87:2b:3e:c9:40:8e:
                    2a:a8:1e:c5:97:93:7c:eb:3a:7e:06:c4:31:35:0e:
                    2d:ce:8b:ac:f5:2d:87:4d:dd:bf:cd:d4:f0:56:cb:
                    ce:f8:7f:65:dc:56:a1:99:5a:7f:9b:62:07:13:85:
                    b6:ec:96:28:17:8f:6a:3f:5d
                Q:   
                    00:bf:fc:73:5a:a8:d1:be:27:a4:93:6a:cc:5b:7c:
                    29:62:ca:53:f5:4b
                G:   
                    50:8c:b3:50:39:4b:7b:ab:82:0a:01:78:46:1f:7c:
                    7e:22:99:be:0e:b8:50:9e:05:33:92:fe:59:b0:92:
                    32:65:6c:14:dd:3a:7d:3c:31:cb:79:da:3c:f3:82:
                    cf:3a:2e:7e:c1:ef:fc:1b:de:da:0b:eb:0e:f7:74:
                    ef:ca:17:58:92:5f:f4:0e:38:a4:86:67:26:47:63:
                    12:19:b6:46:c0:c5:a5:73:6a:d2:d3:ca:64:57:23:
                    56:c7:66:aa:0e:0c:5f:a6:0d:bb:0a:6f:66:e4:f0:
                    4a:80:c6:e6:ed:50:30:dd:26:98:7f:60:99:b2:13:
                    de:3f:71:e0:c3:be:ec:46
        X509v3 extensions:
            X509v3 Basic Constraints: 
            CA:FALSE
            Netscape Comment: 
            OpenSSL Generated Certificate
            X509v3 Subject Key Identifier: 
            47:B5:4E:1A:17:A3:EC:03:C3:38:6C:09:F5:B4:72:E4:4E:B8:84:96
            X509v3 Authority Key Identifier: 
            keyid:78:D7:2D:91:61:2F:95:22:4A:BB:E1:D5:3D:C6:26:AF:AB:97:D2:04
            DirName:/C=US/ST=California/L=Sunnyvale/O=XML Security Library (http://www.aleksey.com/xmlsec)/OU=Root Certificate/CN=Aleksey Sanin/emailAddress=xmlsec@aleksey.com
            serial:01

    Signature Algorithm: md5WithRSAEncryption
        7a:ba:53:30:b9:42:d6:d2:51:68:71:ec:ae:5c:48:d3:10:29:
        a0:cb:82:40:af:fc:09:34:ad:58:4e:11:63:6b:3d:0e:ac:23:
        53:96:ca:4d:81:52:2d:7b:07:17:cd:db:11:8f:de:ee:b0:02:
        bc:45:6a:b2:a3:ba:94:ef:af:44
-----BEGIN CERTIFICATE-----
MIIFKTCCBNOgAwIBAgIBAjANBgkqhkiG9w0BAQQFADCBvzELMAkGA1UEBhMCVVMx
EzARBgNVBAgTCkNhbGlmb3JuaWExPTA7BgNVBAoTNFhNTCBTZWN1cml0eSBMaWJy
YXJ5IChodHRwOi8vd3d3LmFsZWtzZXkuY29tL3htbHNlYykxITAfBgNVBAsTGFNl
Y29uZCBMZXZlbCBDZXJ0aWZpY2F0ZTEWMBQGA1UEAxMNQWxla3NleSBTYW5pbjEh
MB8GCSqGSIb3DQEJARYSeG1sc2VjQGFsZWtzZXkuY29tMB4XDTAyMDIwMjA4MDEy
N1oXDTEyMDEzMTA4MDEyN1owgcIxCzAJBgNVBAYTAlVTMRMwEQYDVQQIEwpDYWxp
Zm9ybmlhMT0wOwYDVQQKEzRYTUwgU2VjdXJpdHkgTGlicmFyeSAoaHR0cDovL3d3
dy5hbGVrc2V5LmNvbS94bWxzZWMpMSQwIgYDVQQLExtUaGlyZCBMZXZlbCBEU0Eg
Q2VydGlmaWNhdGUxFjAUBgNVBAMTDUFsZWtzZXkgU2FuaW4xITAfBgkqhkiG9w0B
CQEWEnhtbHNlY0BhbGVrc2V5LmNvbTCCAbYwggErBgcqhkjOOAQBMIIBHgKBgQCK
ZbopgE9hcB/qK1IC5izVos9+zz+8ESK6y/+mXVcyK4y8Hu/KImBKPz81ORFyL9Rf
+tVe/ytsJGO9gVffHn/nd/iFzocrPslAjiqoHsWXk3zrOn4GxDE1Di3Oi6z1LYdN
3b/N1PBWy874f2XcVqGZWn+bYgcThbbsligXj2o/XQIVAL/8c1qo0b4npJNqzFt8
KWLKU/VLAoGAUIyzUDlLe6uCCgF4Rh98fiKZvg64UJ4FM5L+WbCSMmVsFN06fTwx
y3naPPOCzzoufsHv/Bve2gvrDvd078oXWJJf9A44pIZnJkdjEhm2RsDFpXNq0tPK
ZFcjVsdmqg4MX6YNuwpvZuTwSoDG5u1QMN0mmH9gmbIT3j9x4MO+7EYDgYQAAoGA
On+KBJE3q1TRhG9RspNX01VI5C0VzSy4N/QyC4YzEENoq3GJkKHIYq+grq9ZqV9x
g2Geo/3mqhdcENOtYRmWEfOZJj18oukD6TNceYRZ4HjHjK3WY3wK2OV6QOly+k3f
xgEQpP/7IlCka5YICLuHXrbqjn5b0XcK9L2GDtWOyjujggFXMIIBUzAJBgNVHRME
AjAAMCwGCWCGSAGG+EIBDQQfFh1PcGVuU1NMIEdlbmVyYXRlZCBDZXJ0aWZpY2F0
ZTAdBgNVHQ4EFgQUR7VOGhej7APDOGwJ9bRy5E64hJYwgfgGA1UdIwSB8DCB7YAU
eNctkWEvlSJKu+HVPcYmr6uX0gShgdGkgc4wgcsxCzAJBgNVBAYTAlVTMRMwEQYD
VQQIEwpDYWxpZm9ybmlhMRIwEAYDVQQHEwlTdW5ueXZhbGUxPTA7BgNVBAoTNFhN
TCBTZWN1cml0eSBMaWJyYXJ5IChodHRwOi8vd3d3LmFsZWtzZXkuY29tL3htbHNl
YykxGTAXBgNVBAsTEFJvb3QgQ2VydGlmaWNhdGUxFjAUBgNVBAMTDUFsZWtzZXkg
U2FuaW4xITAfBgkqhkiG9w0BCQEWEnhtbHNlY0BhbGVrc2V5LmNvbYIBATANBgkq
hkiG9w0BAQQFAANBAHq6UzC5QtbSUWhx7K5cSNMQKaDLgkCv/Ak0rVhOEWNrPQ6s
I1OWyk2BUi17BxfN2xGP3u6wArxFarKjupTvr0Q=
-----END CERTIFICATE-----
