Certificate:
    Data:
        Version: 3 (0x2)
        Serial Number: 2 (0x2)
        Signature Algorithm: md5WithRSAEncryption
        Issuer: C=US, ST=California, O=http://www.aleksey.com/xmlsec, OU=Second Level Cert, CN=Aleksey Sanin/Email=aleksey@aleksey.com
        Validity
            Not Before: Mar 29 22:26:53 2002 GMT
            Not After : Mar 29 22:26:53 2003 GMT
        Subject: C=US, ST=California, O=http://www.aleksey.com/xmlsec, OU=DSA Key Certificate, CN=Aleksey Sanin/Email=aleksey@aleksey.com
        Subject Public Key Info:
            Public Key Algorithm: dsaEncryption
            DSA Public Key:
                pub: 
                    3a:7f:8a:04:91:37:ab:54:d1:84:6f:51:b2:93:57:
                    d3:55:48:e4:2d:15:cd:2c:b8:37:f4:32:0b:86:33:
                    10:43:68:ab:71:89:90:a1:c8:62:af:a0:ae:af:59:
                    a9:5f:71:83:61:9e:a3:fd:e6:aa:17:5c:10:d3:ad:
                    61:19:96:11:f3:99:26:3d:7c:a2:e9:03:e9:33:5c:
                    79:84:59:e0:78:c7:8c:ad:d6:63:7c:0a:d8:e5:7a:
                    40:e9:72:fa:4d:df:c6:01:10:a4:ff:fb:22:50:a4:
                    6b:96:08:08:bb:87:5e:b6:ea:8e:7e:5b:d1:77:0a:
                    f4:bd:86:0e:d5:8e:ca:3b
                P:   
                    00:8a:65:ba:29:80:4f:61:70:1f:ea:2b:52:02:e6:
                    2c:d5:a2:cf:7e:cf:3f:bc:11:22:ba:cb:ff:a6:5d:
                    57:32:2b:8c:bc:1e:ef:ca:22:60:4a:3f:3f:35:39:
                    11:72:2f:d4:5f:fa:d5:5e:ff:2b:6c:24:63:bd:81:
                    57:df:1e:7f:e7:77:f8:85:ce:87:2b:3e:c9:40:8e:
                    2a:a8:1e:c5:97:93:7c:eb:3a:7e:06:c4:31:35:0e:
                    2d:ce:8b:ac:f5:2d:87:4d:dd:bf:cd:d4:f0:56:cb:
                    ce:f8:7f:65:dc:56:a1:99:5a:7f:9b:62:07:13:85:
                    b6:ec:96:28:17:8f:6a:3f:5d
                Q:   
                    00:bf:fc:73:5a:a8:d1:be:27:a4:93:6a:cc:5b:7c:
                    29:62:ca:53:f5:4b
                G:   
                    50:8c:b3:50:39:4b:7b:ab:82:0a:01:78:46:1f:7c:
                    7e:22:99:be:0e:b8:50:9e:05:33:92:fe:59:b0:92:
                    32:65:6c:14:dd:3a:7d:3c:31:cb:79:da:3c:f3:82:
                    cf:3a:2e:7e:c1:ef:fc:1b:de:da:0b:eb:0e:f7:74:
                    ef:ca:17:58:92:5f:f4:0e:38:a4:86:67:26:47:63:
                    12:19:b6:46:c0:c5:a5:73:6a:d2:d3:ca:64:57:23:
                    56:c7:66:aa:0e:0c:5f:a6:0d:bb:0a:6f:66:e4:f0:
                    4a:80:c6:e6:ed:50:30:dd:26:98:7f:60:99:b2:13:
                    de:3f:71:e0:c3:be:ec:46
        X509v3 extensions:
            X509v3 Basic Constraints: 
                CA:FALSE
            Netscape Comment: 
                OpenSSL Generated Certificate
            X509v3 Subject Key Identifier: 
                47:B5:4E:1A:17:A3:EC:03:C3:38:6C:09:F5:B4:72:E4:4E:B8:84:96
            X509v3 Authority Key Identifier: 
                keyid:78:D7:2D:91:61:2F:95:22:4A:BB:E1:D5:3D:C6:26:AF:AB:97:D2:04
                DirName:/C=US/ST=California/L=Sunnyvale/O=http://www.aleksey.com/xmlsec/CN=Aleksey Sanin/Email=aleksey@aleksey.com
                serial:01

    Signature Algorithm: md5WithRSAEncryption
        bd:ad:85:a0:bc:8e:69:54:bc:41:8b:1d:1d:41:df:ee:d7:26:
        1a:38:b1:79:65:90:78:1c:95:25:c9:9c:3f:cd:1a:cb:23:e5:
        7c:d0:1e:96:cb:55:27:cd:10:45:1e:24:a1:b6:f0:5d:2f:c9:
        3d:39:84:4b:17:00:70:2d:83:da
-----BEGIN CERTIFICATE-----
MIIEvTCCBGegAwIBAgIBAjANBgkqhkiG9w0BAQQFADCBojELMAkGA1UEBhMCVVMx
EzARBgNVBAgTCkNhbGlmb3JuaWExJjAkBgNVBAoTHWh0dHA6Ly93d3cuYWxla3Nl
eS5jb20veG1sc2VjMRowGAYDVQQLExFTZWNvbmQgTGV2ZWwgQ2VydDEWMBQGA1UE
AxMNQWxla3NleSBTYW5pbjEiMCAGCSqGSIb3DQEJARYTYWxla3NleUBhbGVrc2V5
LmNvbTAeFw0wMjAzMjkyMjI2NTNaFw0wMzAzMjkyMjI2NTNaMIGkMQswCQYDVQQG
EwJVUzETMBEGA1UECBMKQ2FsaWZvcm5pYTEmMCQGA1UEChMdaHR0cDovL3d3dy5h
bGVrc2V5LmNvbS94bWxzZWMxHDAaBgNVBAsTE0RTQSBLZXkgQ2VydGlmaWNhdGUx
FjAUBgNVBAMTDUFsZWtzZXkgU2FuaW4xIjAgBgkqhkiG9w0BCQEWE2FsZWtzZXlA
YWxla3NleS5jb20wggG2MIIBKwYHKoZIzjgEATCCAR4CgYEAimW6KYBPYXAf6itS
AuYs1aLPfs8/vBEiusv/pl1XMiuMvB7vyiJgSj8/NTkRci/UX/rVXv8rbCRjvYFX
3x5/53f4hc6HKz7JQI4qqB7Fl5N86zp+BsQxNQ4tzous9S2HTd2/zdTwVsvO+H9l
3FahmVp/m2IHE4W27JYoF49qP10CFQC//HNaqNG+J6STasxbfCliylP1SwKBgFCM
s1A5S3urggoBeEYffH4imb4OuFCeBTOS/lmwkjJlbBTdOn08Mct52jzzgs86Ln7B
7/wb3toL6w73dO/KF1iSX/QOOKSGZyZHYxIZtkbAxaVzatLTymRXI1bHZqoODF+m
DbsKb2bk8EqAxubtUDDdJph/YJmyE94/ceDDvuxGA4GEAAKBgDp/igSRN6tU0YRv
UbKTV9NVSOQtFc0suDf0MguGMxBDaKtxiZChyGKvoK6vWalfcYNhnqP95qoXXBDT
rWEZlhHzmSY9fKLpA+kzXHmEWeB4x4yt1mN8CtjlekDpcvpN38YBEKT/+yJQpGuW
CAi7h1626o5+W9F3CvS9hg7Vjso7o4IBJjCCASIwCQYDVR0TBAIwADAsBglghkgB
hvhCAQ0EHxYdT3BlblNTTCBHZW5lcmF0ZWQgQ2VydGlmaWNhdGUwHQYDVR0OBBYE
FEe1ThoXo+wDwzhsCfW0cuROuISWMIHHBgNVHSMEgb8wgbyAFHjXLZFhL5UiSrvh
1T3GJq+rl9IEoYGgpIGdMIGaMQswCQYDVQQGEwJVUzETMBEGA1UECBMKQ2FsaWZv
cm5pYTESMBAGA1UEBxMJU3Vubnl2YWxlMSYwJAYDVQQKEx1odHRwOi8vd3d3LmFs
ZWtzZXkuY29tL3htbHNlYzEWMBQGA1UEAxMNQWxla3NleSBTYW5pbjEiMCAGCSqG
SIb3DQEJARYTYWxla3NleUBhbGVrc2V5LmNvbYIBATANBgkqhkiG9w0BAQQFAANB
AL2thaC8jmlUvEGLHR1B3+7XJho4sXllkHgclSXJnD/NGssj5XzQHpbLVSfNEEUe
JKG28F0vyT05hEsXAHAtg9o=
-----END CERTIFICATE-----
