Certificate:
    Data:
        Version: 3 (0x2)
        Serial Number: 3 (0x3)
        Signature Algorithm: md5WithRSAEncryption
        Issuer: C=US, ST=California, O=XML Security Library (http://www.aleksey.com/xmlsec), OU=Second Level Certificate, CN=Aleksey Sanin/emailAddress=xmlsec@aleksey.com
        Validity
            Not Before: Feb  2 08:01:48 2002 GMT
            Not After : Jan 31 08:01:48 2012 GMT
        Subject: C=US, ST=California, O=XML Security Library (http://www.aleksey.com/xmlsec), OU=Third Level RSA Certificate, CN=Aleksey Sanin/emailAddress=xmlsec@aleksey.com
        Subject Public Key Info:
            Public Key Algorithm: rsaEncryption
            RSA Public Key: (512 bit)
                Modulus (512 bit):
                    00:d0:a7:a5:8b:76:b1:e1:34:c6:1c:a9:22:5d:db:
                    b4:bd:c1:6e:b1:1d:1c:04:50:92:92:09:84:39:e9:
                    ab:a0:d2:7f:b8:b1:ae:3d:da:5f:25:5a:3d:6b:62:
                    fa:e6:b1:db:55:df:b5:02:b4:95:aa:39:2c:28:6e:
                    3f:67:a7:2b:17
                Exponent: 65537 (0x10001)
        X509v3 extensions:
            X509v3 Basic Constraints: 
            CA:FALSE
            Netscape Comment: 
            OpenSSL Generated Certificate
            X509v3 Subject Key Identifier: 
            A4:18:1D:13:D5:8C:32:84:0C:9D:D1:B8:88:34:FD:5C:37:D9:FA:48
            X509v3 Authority Key Identifier: 
            keyid:78:D7:2D:91:61:2F:95:22:4A:BB:E1:D5:3D:C6:26:AF:AB:97:D2:04
            DirName:/C=US/ST=California/L=Sunnyvale/O=XML Security Library (http://www.aleksey.com/xmlsec)/OU=Root Certificate/CN=Aleksey Sanin/emailAddress=xmlsec@aleksey.com
            serial:01

    Signature Algorithm: md5WithRSAEncryption
        2f:3f:38:6c:2b:1a:18:40:4e:54:4b:0a:63:8b:1c:79:7c:a3:
        e2:76:50:03:e7:a6:79:9c:f3:eb:5c:ec:61:a3:bb:2d:4b:f8:
        74:33:c7:77:f6:e3:60:e0:b9:d1:07:d6:2e:f5:13:46:ae:2e:
        0d:7e:8a:47:33:1c:f6:dd:8f:4f
-----BEGIN CERTIFICATE-----
MIIDzTCCA3egAwIBAgIBAzANBgkqhkiG9w0BAQQFADCBvzELMAkGA1UEBhMCVVMx
EzARBgNVBAgTCkNhbGlmb3JuaWExPTA7BgNVBAoTNFhNTCBTZWN1cml0eSBMaWJy
YXJ5IChodHRwOi8vd3d3LmFsZWtzZXkuY29tL3htbHNlYykxITAfBgNVBAsTGFNl
Y29uZCBMZXZlbCBDZXJ0aWZpY2F0ZTEWMBQGA1UEAxMNQWxla3NleSBTYW5pbjEh
MB8GCSqGSIb3DQEJARYSeG1sc2VjQGFsZWtzZXkuY29tMB4XDTAyMDIwMjA4MDE0
OFoXDTEyMDEzMTA4MDE0OFowgcIxCzAJBgNVBAYTAlVTMRMwEQYDVQQIEwpDYWxp
Zm9ybmlhMT0wOwYDVQQKEzRYTUwgU2VjdXJpdHkgTGlicmFyeSAoaHR0cDovL3d3
dy5hbGVrc2V5LmNvbS94bWxzZWMpMSQwIgYDVQQLExtUaGlyZCBMZXZlbCBSU0Eg
Q2VydGlmaWNhdGUxFjAUBgNVBAMTDUFsZWtzZXkgU2FuaW4xITAfBgkqhkiG9w0B
CQEWEnhtbHNlY0BhbGVrc2V5LmNvbTBcMA0GCSqGSIb3DQEBAQUAA0sAMEgCQQDQ
p6WLdrHhNMYcqSJd27S9wW6xHRwEUJKSCYQ56aug0n+4sa492l8lWj1rYvrmsdtV
37UCtJWqOSwobj9npysXAgMBAAGjggFXMIIBUzAJBgNVHRMEAjAAMCwGCWCGSAGG
+EIBDQQfFh1PcGVuU1NMIEdlbmVyYXRlZCBDZXJ0aWZpY2F0ZTAdBgNVHQ4EFgQU
pBgdE9WMMoQMndG4iDT9XDfZ+kgwgfgGA1UdIwSB8DCB7YAUeNctkWEvlSJKu+HV
PcYmr6uX0gShgdGkgc4wgcsxCzAJBgNVBAYTAlVTMRMwEQYDVQQIEwpDYWxpZm9y
bmlhMRIwEAYDVQQHEwlTdW5ueXZhbGUxPTA7BgNVBAoTNFhNTCBTZWN1cml0eSBM
aWJyYXJ5IChodHRwOi8vd3d3LmFsZWtzZXkuY29tL3htbHNlYykxGTAXBgNVBAsT
EFJvb3QgQ2VydGlmaWNhdGUxFjAUBgNVBAMTDUFsZWtzZXkgU2FuaW4xITAfBgkq
hkiG9w0BCQEWEnhtbHNlY0BhbGVrc2V5LmNvbYIBATANBgkqhkiG9w0BAQQFAANB
AC8/OGwrGhhATlRLCmOLHHl8o+J2UAPnpnmc8+tc7GGjuy1L+HQzx3f242DgudEH
1i71E0auLg1+ikczHPbdj08=
-----END CERTIFICATE-----
