Certificate:
    Data:
        Version: 3 (0x2)
        Serial Number: 3 (0x3)
        Signature Algorithm: md5WithRSAEncryption
        Issuer: C=US, ST=California, O=http://www.aleksey.com/xmlsec, OU=Second Level Cert, CN=Aleksey Sanin/Email=aleksey@aleksey.com
        Validity
            Not Before: Mar 29 22:27:24 2002 GMT
            Not After : Mar 29 22:27:24 2003 GMT
        Subject: C=US, ST=California, O=http://www.aleksey.com/xmlsec, OU=RSA Key Certificate, CN=Aleksey Sanin/Email=aleksey@aleksey.com
        Subject Public Key Info:
            Public Key Algorithm: rsaEncryption
            RSA Public Key: (512 bit)
                Modulus (512 bit):
                    00:d0:a7:a5:8b:76:b1:e1:34:c6:1c:a9:22:5d:db:
                    b4:bd:c1:6e:b1:1d:1c:04:50:92:92:09:84:39:e9:
                    ab:a0:d2:7f:b8:b1:ae:3d:da:5f:25:5a:3d:6b:62:
                    fa:e6:b1:db:55:df:b5:02:b4:95:aa:39:2c:28:6e:
                    3f:67:a7:2b:17
                Exponent: 65537 (0x10001)
        X509v3 extensions:
            X509v3 Basic Constraints: 
                CA:FALSE
            Netscape Comment: 
                OpenSSL Generated Certificate
            X509v3 Subject Key Identifier: 
                A4:18:1D:13:D5:8C:32:84:0C:9D:D1:B8:88:34:FD:5C:37:D9:FA:48
            X509v3 Authority Key Identifier: 
                keyid:78:D7:2D:91:61:2F:95:22:4A:BB:E1:D5:3D:C6:26:AF:AB:97:D2:04
                DirName:/C=US/ST=California/L=Sunnyvale/O=http://www.aleksey.com/xmlsec/CN=Aleksey Sanin/Email=aleksey@aleksey.com
                serial:01

    Signature Algorithm: md5WithRSAEncryption
        60:7f:b9:b8:0a:91:11:9d:ea:39:cb:fd:b5:b5:0a:0f:0d:38:
        a8:7f:b6:6d:ab:ce:bc:4b:d1:db:8c:3b:00:fd:ac:96:08:7a:
        70:9d:2b:56:b2:7e:62:6a:a3:74:76:19:37:71:02:c2:d4:55:
        e5:30:06:ae:ab:1b:19:bc:d9:ab
-----BEGIN CERTIFICATE-----
MIIDYTCCAwugAwIBAgIBAzANBgkqhkiG9w0BAQQFADCBojELMAkGA1UEBhMCVVMx
EzARBgNVBAgTCkNhbGlmb3JuaWExJjAkBgNVBAoTHWh0dHA6Ly93d3cuYWxla3Nl
eS5jb20veG1sc2VjMRowGAYDVQQLExFTZWNvbmQgTGV2ZWwgQ2VydDEWMBQGA1UE
AxMNQWxla3NleSBTYW5pbjEiMCAGCSqGSIb3DQEJARYTYWxla3NleUBhbGVrc2V5
LmNvbTAeFw0wMjAzMjkyMjI3MjRaFw0wMzAzMjkyMjI3MjRaMIGkMQswCQYDVQQG
EwJVUzETMBEGA1UECBMKQ2FsaWZvcm5pYTEmMCQGA1UEChMdaHR0cDovL3d3dy5h
bGVrc2V5LmNvbS94bWxzZWMxHDAaBgNVBAsTE1JTQSBLZXkgQ2VydGlmaWNhdGUx
FjAUBgNVBAMTDUFsZWtzZXkgU2FuaW4xIjAgBgkqhkiG9w0BCQEWE2FsZWtzZXlA
YWxla3NleS5jb20wXDANBgkqhkiG9w0BAQEFAANLADBIAkEA0Keli3ax4TTGHKki
Xdu0vcFusR0cBFCSkgmEOemroNJ/uLGuPdpfJVo9a2L65rHbVd+1ArSVqjksKG4/
Z6crFwIDAQABo4IBJjCCASIwCQYDVR0TBAIwADAsBglghkgBhvhCAQ0EHxYdT3Bl
blNTTCBHZW5lcmF0ZWQgQ2VydGlmaWNhdGUwHQYDVR0OBBYEFKQYHRPVjDKEDJ3R
uIg0/Vw32fpIMIHHBgNVHSMEgb8wgbyAFHjXLZFhL5UiSrvh1T3GJq+rl9IEoYGg
pIGdMIGaMQswCQYDVQQGEwJVUzETMBEGA1UECBMKQ2FsaWZvcm5pYTESMBAGA1UE
BxMJU3Vubnl2YWxlMSYwJAYDVQQKEx1odHRwOi8vd3d3LmFsZWtzZXkuY29tL3ht
bHNlYzEWMBQGA1UEAxMNQWxla3NleSBTYW5pbjEiMCAGCSqGSIb3DQEJARYTYWxl
a3NleUBhbGVrc2V5LmNvbYIBATANBgkqhkiG9w0BAQQFAANBAGB/ubgKkRGd6jnL
/bW1Cg8NOKh/tm2rzrxL0duMOwD9rJYIenCdK1ayfmJqo3R2GTdxAsLUVeUwBq6r
Gxm82as=
-----END CERTIFICATE-----
