Certificate:
    Data:
        Version: 3 (0x2)
        Serial Number: 5 (0x5)
        Signature Algorithm: md5WithRSAEncryption
        Issuer: C=US, ST=California, L=Sunnyvale, O=XML Security Library (http://www.aleksey.com/xmlsec), OU=Root Certificate, CN=Aleksey Sanin/emailAddress=xmlsec@aleksey.com
        Validity
            Not Before: Mar 31 04:02:22 2003 GMT
            Not After : Mar 28 04:02:22 2013 GMT
        Subject: C=US, ST=California, O=XML Security Library (http://www.aleksey.com/xmlsec), OU=Examples RSA Certificate, CN=Aleksey Sanin/emailAddress=xmlsec@aleksey.com
        Subject Public Key Info:
            Public Key Algorithm: rsaEncryption
            RSA Public Key: (2048 bit)
                Modulus (2048 bit):
                    00:97:b8:fe:b4:3f:83:35:78:16:89:04:ec:2b:61:
                    8c:bf:c4:5f:00:81:4a:45:e6:d9:cd:e9:e2:3c:97:
                    3b:45:ad:aa:e6:8d:0b:77:71:07:01:4f:7c:f9:7d:
                    e2:19:aa:dd:91:59:f4:f1:cf:3d:ba:78:46:96:11:
                    9c:b6:5b:46:39:73:55:23:aa:f7:9e:00:5c:e5:e9:
                    49:ec:3b:9c:3f:84:99:3a:90:ad:df:7e:64:86:c6:
                    26:72:ce:31:08:79:7e:13:15:b8:e5:bf:d6:56:02:
                    8d:60:21:4c:27:18:64:fb:fb:55:70:f6:33:bd:2f:
                    55:70:d5:5e:7e:99:ae:a4:e0:aa:45:47:13:a8:30:
                    d5:a0:8a:9d:cc:20:ec:e4:8e:51:c9:54:c5:7f:3e:
                    66:2d:74:bf:a3:7a:f8:f3:ec:94:57:39:b4:ac:00:
                    75:62:61:54:b4:d0:e0:52:86:f8:5e:77:ec:50:43:
                    9c:d2:ba:a7:8c:62:5a:bc:b2:fe:f3:cc:62:7e:23:
                    60:6b:c7:51:49:37:78:7e:25:15:30:ab:fa:b4:ae:
                    25:8f:22:fc:a3:48:7f:f2:0a:8a:6e:e0:fe:8d:f0:
                    01:ed:c6:33:cc:6b:a1:fd:a6:80:ef:06:8c:af:f6:
                    40:3a:8e:42:14:20:61:12:1f:e3:fc:05:b1:05:d5:
                    65:c3
                Exponent: 65537 (0x10001)
        X509v3 extensions:
            X509v3 Basic Constraints: 
            CA:FALSE
            Netscape Comment: 
            OpenSSL Generated Certificate
            X509v3 Subject Key Identifier: 
            24:84:2C:F2:D4:59:20:62:8B:2E:5C:86:90:A3:AA:30:BA:27:1A:9C
            X509v3 Authority Key Identifier: 
            keyid:B4:B9:EF:9A:E6:97:0E:68:65:1E:98:CE:FA:55:0D:89:06:DB:4C:7C
            DirName:/C=US/ST=California/L=Sunnyvale/O=XML Security Library (http://www.aleksey.com/xmlsec)/OU=Root Certificate/CN=Aleksey Sanin/emailAddress=xmlsec@aleksey.com
            serial:00

    Signature Algorithm: md5WithRSAEncryption
        b5:3f:9b:32:31:4a:ff:2f:84:3b:a8:9b:11:5c:a6:5c:f0:76:
        52:d9:6e:f4:90:ad:fa:0d:90:c1:98:d5:4a:12:dd:82:6b:37:
        e8:d9:2d:62:92:c9:61:37:98:86:8f:a4:49:6a:5e:25:d0:18:
        69:30:0f:98:8f:43:58:89:31:b2:3b:05:e2:ef:c7:a6:71:5f:
        f7:fe:73:c5:a7:b2:cd:2e:73:53:71:7d:a8:4c:68:1a:32:1b:
        5e:48:2f:8f:9b:7a:a3:b5:f3:67:e8:b1:a2:89:4e:b2:4d:1b:
        79:9c:ff:f0:0d:19:4f:4e:b1:03:3d:99:f0:44:b7:8a:0b:34:
        9d:83
-----BEGIN CERTIFICATE-----
MIIE3zCCBEigAwIBAgIBBTANBgkqhkiG9w0BAQQFADCByzELMAkGA1UEBhMCVVMx
EzARBgNVBAgTCkNhbGlmb3JuaWExEjAQBgNVBAcTCVN1bm55dmFsZTE9MDsGA1UE
ChM0WE1MIFNlY3VyaXR5IExpYnJhcnkgKGh0dHA6Ly93d3cuYWxla3NleS5jb20v
eG1sc2VjKTEZMBcGA1UECxMQUm9vdCBDZXJ0aWZpY2F0ZTEWMBQGA1UEAxMNQWxl
a3NleSBTYW5pbjEhMB8GCSqGSIb3DQEJARYSeG1sc2VjQGFsZWtzZXkuY29tMB4X
DTAzMDMzMTA0MDIyMloXDTEzMDMyODA0MDIyMlowgb8xCzAJBgNVBAYTAlVTMRMw
EQYDVQQIEwpDYWxpZm9ybmlhMT0wOwYDVQQKEzRYTUwgU2VjdXJpdHkgTGlicmFy
eSAoaHR0cDovL3d3dy5hbGVrc2V5LmNvbS94bWxzZWMpMSEwHwYDVQQLExhFeGFt
cGxlcyBSU0EgQ2VydGlmaWNhdGUxFjAUBgNVBAMTDUFsZWtzZXkgU2FuaW4xITAf
BgkqhkiG9w0BCQEWEnhtbHNlY0BhbGVrc2V5LmNvbTCCASIwDQYJKoZIhvcNAQEB
BQADggEPADCCAQoCggEBAJe4/rQ/gzV4FokE7CthjL/EXwCBSkXm2c3p4jyXO0Wt
quaNC3dxBwFPfPl94hmq3ZFZ9PHPPbp4RpYRnLZbRjlzVSOq954AXOXpSew7nD+E
mTqQrd9+ZIbGJnLOMQh5fhMVuOW/1lYCjWAhTCcYZPv7VXD2M70vVXDVXn6ZrqTg
qkVHE6gw1aCKncwg7OSOUclUxX8+Zi10v6N6+PPslFc5tKwAdWJhVLTQ4FKG+F53
7FBDnNK6p4xiWryy/vPMYn4jYGvHUUk3eH4lFTCr+rSuJY8i/KNIf/IKim7g/o3w
Ae3GM8xrof2mgO8GjK/2QDqOQhQgYRIf4/wFsQXVZcMCAwEAAaOCAVcwggFTMAkG
A1UdEwQCMAAwLAYJYIZIAYb4QgENBB8WHU9wZW5TU0wgR2VuZXJhdGVkIENlcnRp
ZmljYXRlMB0GA1UdDgQWBBQkhCzy1FkgYosuXIaQo6owuicanDCB+AYDVR0jBIHw
MIHtgBS0ue+a5pcOaGUemM76VQ2JBttMfKGB0aSBzjCByzELMAkGA1UEBhMCVVMx
EzARBgNVBAgTCkNhbGlmb3JuaWExEjAQBgNVBAcTCVN1bm55dmFsZTE9MDsGA1UE
ChM0WE1MIFNlY3VyaXR5IExpYnJhcnkgKGh0dHA6Ly93d3cuYWxla3NleS5jb20v
eG1sc2VjKTEZMBcGA1UECxMQUm9vdCBDZXJ0aWZpY2F0ZTEWMBQGA1UEAxMNQWxl
a3NleSBTYW5pbjEhMB8GCSqGSIb3DQEJARYSeG1sc2VjQGFsZWtzZXkuY29tggEA
MA0GCSqGSIb3DQEBBAUAA4GBALU/mzIxSv8vhDuomxFcplzwdlLZbvSQrfoNkMGY
1UoS3YJrN+jZLWKSyWE3mIaPpElqXiXQGGkwD5iPQ1iJMbI7BeLvx6ZxX/f+c8Wn
ss0uc1NxfahMaBoyG15IL4+beqO182fosaKJTrJNG3mc//ANGU9OsQM9mfBEt4oL
NJ2D
-----END CERTIFICATE-----
