Certificate:
    Data:
        Version: 3 (0x2)
        Serial Number:
            77:35:ee:48:7f:68:62:da:f1:b3:95:6d:96:1c:cb:0f:a6:f3:4f:4f
        Signature Algorithm: sha256WithRSAEncryption
        Issuer: C=US, ST=California, O=XML Security Library (http:\/\/www.aleksey.com\/xmlsec), OU=Root CA, CN=Aleksey Sanin/emailAddress=xmlsec@aleksey.com
        Validity
            Not Before: Mar  8 22:07:42 2026 GMT
            Not After : Feb 12 22:07:42 2126 GMT
        Subject: C=US, ST=California, O=XML Security Library (http:\/\/www.aleksey.com\/xmlsec), OU=Second level CA, CN=Aleksey Sanin/emailAddress=xmlsec@aleksey.com
        Subject Public Key Info:
            Public Key Algorithm: rsaEncryption
                Public-Key: (2048 bit)
                Modulus:
                    00:f0:7c:43:d5:c5:00:f7:4c:b8:8d:46:9a:21:ee:
                    0d:4a:45:83:83:9a:72:5c:74:9c:e2:ec:53:17:7c:
                    ab:80:82:48:4d:99:06:a8:00:74:1d:ef:fa:5c:c2:
                    d8:37:a0:d5:07:42:e9:2e:a5:24:fc:f4:00:bb:fe:
                    a6:a4:17:bc:a4:74:44:27:57:3c:60:81:88:1d:5d:
                    b8:5f:0d:98:4b:71:a5:54:b8:cb:45:1a:03:3a:94:
                    72:f4:86:74:99:a3:c5:3d:2c:72:96:3a:53:c8:84:
                    97:a6:13:f5:f3:88:7a:a0:02:c4:29:a2:c8:ac:ec:
                    84:61:b9:49:52:b0:36:b6:c4:55:bb:31:f4:b6:c4:
                    5f:fe:52:18:9c:95:a1:e0:c8:16:7f:44:3c:e7:d9:
                    be:4a:d7:85:40:25:db:75:c5:16:a8:30:2e:73:54:
                    8c:ee:d6:e9:37:df:e8:fd:ec:be:fc:fb:3e:b9:55:
                    11:bb:7f:11:93:6a:ed:9c:f7:83:1c:97:65:7e:2a:
                    30:ee:94:70:27:c4:b5:49:92:37:33:a3:49:95:8b:
                    eb:b4:55:cc:ea:f5:58:54:a9:b3:65:8a:0f:53:11:
                    14:00:3c:10:b7:0f:86:49:1e:12:6c:06:62:73:fb:
                    8e:e2:ee:93:4b:fc:f9:ac:f2:aa:fd:53:43:e0:6d:
                    96:8f
                Exponent: 65537 (0x10001)
        X509v3 extensions:
            X509v3 Basic Constraints: 
                CA:TRUE
            Netscape Comment: 
                OpenSSL Generated Certificate
            X509v3 Subject Key Identifier: 
                D1:7D:17:AC:45:42:8A:8E:F9:B0:17:25:D5:3C:72:98:9D:88:3A:25
            X509v3 Authority Key Identifier: 
                keyid:33:79:5A:E4:01:43:4E:60:79:04:AD:92:CC:A0:C3:00:CC:6E:10:44
                DirName:/C=US/ST=California/O=XML Security Library (http:\/\/www.aleksey.com\/xmlsec)/OU=Root CA/CN=Aleksey Sanin/emailAddress=xmlsec@aleksey.com
                serial:77:35:EE:48:7F:68:62:DA:F1:B3:95:6D:96:1C:CB:0F:A6:F3:4F:4E
    Signature Algorithm: sha256WithRSAEncryption
    Signature Value:
        21:ae:6f:c9:15:d9:d8:72:56:fc:1f:04:09:76:01:92:62:d5:
        30:d9:67:6b:97:5f:79:d0:7f:d9:50:6c:12:2a:ce:a5:19:7f:
        18:4f:9c:67:8f:9e:40:10:b2:e1:6d:eb:53:a3:e0:5e:5b:09:
        a0:f6:46:5b:aa:74:42:f6:db:74:bc:88:45:32:4a:3f:b9:06:
        64:9f:bb:f3:ac:51:08:7d:78:27:12:6d:94:1a:49:14:2d:f5:
        c7:f6:98:2d:3b:80:3d:11:0d:ac:6d:b4:78:3b:28:b7:9f:da:
        b5:c3:7f:5a:05:d9:14:66:7c:37:ba:d8:56:29:51:e3:70:c5:
        be:9f:89:b4:45:90:61:e3:fb:27:84:71:e5:9f:16:88:27:39:
        b8:94:1f:ec:0c:a3:5c:5c:94:c9:1d:46:dd:d4:a7:21:e5:a3:
        ae:49:70:82:9a:5b:70:a4:47:44:33:dc:9a:63:59:ab:fa:31:
        fd:68:3e:e5:7e:8d:c5:10:94:31:a4:ee:8c:f8:01:fa:24:37:
        66:4b:62:f3:41:44:97:0c:ee:1f:89:b7:a0:ac:8f:c8:79:34:
        1e:49:3f:76:99:92:38:7e:82:f1:aa:9e:92:1b:5f:56:1a:cf:
        6c:34:51:43:60:22:25:ea:53:6a:2c:30:21:67:27:06:9e:d2:
        ed:19:a6:45
-----BEGIN CERTIFICATE-----
MIIFSDCCBDCgAwIBAgIUdzXuSH9oYtrxs5VtlhzLD6bzT08wDQYJKoZIhvcNAQEL
BQAwga4xCzAJBgNVBAYTAlVTMRMwEQYDVQQIEwpDYWxpZm9ybmlhMT0wOwYDVQQK
EzRYTUwgU2VjdXJpdHkgTGlicmFyeSAoaHR0cDovL3d3dy5hbGVrc2V5LmNvbS94
bWxzZWMpMRAwDgYDVQQLEwdSb290IENBMRYwFAYDVQQDEw1BbGVrc2V5IFNhbmlu
MSEwHwYJKoZIhvcNAQkBFhJ4bWxzZWNAYWxla3NleS5jb20wIBcNMjYwMzA4MjIw
NzQyWhgPMjEyNjAyMTIyMjA3NDJaMIG2MQswCQYDVQQGEwJVUzETMBEGA1UECBMK
Q2FsaWZvcm5pYTE9MDsGA1UEChM0WE1MIFNlY3VyaXR5IExpYnJhcnkgKGh0dHA6
Ly93d3cuYWxla3NleS5jb20veG1sc2VjKTEYMBYGA1UECxMPU2Vjb25kIGxldmVs
IENBMRYwFAYDVQQDEw1BbGVrc2V5IFNhbmluMSEwHwYJKoZIhvcNAQkBFhJ4bWxz
ZWNAYWxla3NleS5jb20wggEiMA0GCSqGSIb3DQEBAQUAA4IBDwAwggEKAoIBAQDw
fEPVxQD3TLiNRpoh7g1KRYODmnJcdJzi7FMXfKuAgkhNmQaoAHQd7/pcwtg3oNUH
QukupST89AC7/qakF7ykdEQnVzxggYgdXbhfDZhLcaVUuMtFGgM6lHL0hnSZo8U9
LHKWOlPIhJemE/XziHqgAsQposis7IRhuUlSsDa2xFW7MfS2xF/+UhiclaHgyBZ/
RDzn2b5K14VAJdt1xRaoMC5zVIzu1uk33+j97L78+z65VRG7fxGTau2c94Mcl2V+
KjDulHAnxLVJkjczo0mVi+u0Vczq9VhUqbNlig9TERQAPBC3D4ZJHhJsBmJz+47i
7pNL/Pms8qr9U0PgbZaPAgMBAAGjggFQMIIBTDAMBgNVHRMEBTADAQH/MCwGCWCG
SAGG+EIBDQQfFh1PcGVuU1NMIEdlbmVyYXRlZCBDZXJ0aWZpY2F0ZTAdBgNVHQ4E
FgQU0X0XrEVCio75sBcl1TxymJ2IOiUwge4GA1UdIwSB5jCB44AUM3la5AFDTmB5
BK2SzKDDAMxuEEShgbSkgbEwga4xCzAJBgNVBAYTAlVTMRMwEQYDVQQIEwpDYWxp
Zm9ybmlhMT0wOwYDVQQKEzRYTUwgU2VjdXJpdHkgTGlicmFyeSAoaHR0cDovL3d3
dy5hbGVrc2V5LmNvbS94bWxzZWMpMRAwDgYDVQQLEwdSb290IENBMRYwFAYDVQQD
Ew1BbGVrc2V5IFNhbmluMSEwHwYJKoZIhvcNAQkBFhJ4bWxzZWNAYWxla3NleS5j
b22CFHc17kh/aGLa8bOVbZYcyw+m809OMA0GCSqGSIb3DQEBCwUAA4IBAQAhrm/J
FdnYclb8HwQJdgGSYtUw2Wdrl1950H/ZUGwSKs6lGX8YT5xnj55AELLhbetTo+Be
Wwmg9kZbqnRC9tt0vIhFMko/uQZkn7vzrFEIfXgnEm2UGkkULfXH9pgtO4A9EQ2s
bbR4Oyi3n9q1w39aBdkUZnw3uthWKVHjcMW+n4m0RZBh4/snhHHlnxaIJzm4lB/s
DKNcXJTJHUbd1Kch5aOuSXCCmltwpEdEM9yaY1mr+jH9aD7lfo3FEJQxpO6M+AH6
JDdmS2LzQUSXDO4fibegrI/IeTQeST92mZI4foLxqp6SG19WGs9sNFFDYCIl6lNq
LDAhZycGntLtGaZF
-----END CERTIFICATE-----
