Certificate:
    Data:
        Version: 3 (0x2)
        Serial Number:
            af:a2:8b:b9:33:ad:da:bc
        Signature Algorithm: sha1WithRSAEncryption
        Issuer: C=US, ST=California, O=XML Security Library (http:\/\/www.aleksey.com\/xmlsec), CN=Aleksey Sanin/emailAddress=xmlsec@aleksey.com
        Validity
            Not Before: Feb  7 03:54:13 2023 GMT
            Not After : Jan 14 03:54:13 2123 GMT
        Subject: C=US, ST=California, O=XML Security Library (http:\/\/www.aleksey.com\/xmlsec), OU=ECDSA secp521r1 Key, CN=ECDSA secp521r1 Key/emailAddress=xmlsec@aleksey.com
        Subject Public Key Info:
            Public Key Algorithm: id-ecPublicKey
                Public-Key: (521 bit)
                pub:
                    04:01:2e:11:bf:4a:32:b7:32:af:37:35:9f:48:8e:
                    0b:4a:d1:66:d5:69:42:07:be:ea:12:5e:cf:cf:12:
                    4d:a5:3c:9b:93:f5:5c:b8:62:74:7b:02:33:d5:8b:
                    54:1d:90:e7:cd:e2:a8:53:19:a3:9a:c6:a1:b2:87:
                    f6:93:2b:74:81:5d:fd:01:a4:d8:0c:2a:5d:b3:15:
                    f7:4a:77:76:82:5f:2c:26:b8:f1:c3:87:4b:d1:93:
                    4a:a9:46:b3:dd:6c:50:a2:68:2d:1d:8c:48:18:83:
                    06:30:bf:96:c9:2c:27:5f:33:16:9c:b5:60:ce:e6:
                    29:70:a8:a9:ea:75:3d:56:c3:b9:e3:02:8f
                ASN1 OID: secp521r1
                NIST CURVE: P-521
        X509v3 extensions:
            X509v3 Basic Constraints: 
                CA:TRUE
            Netscape Comment: 
                OpenSSL Generated Certificate
            X509v3 Subject Key Identifier: 
                BE:CF:CE:80:25:B4:E0:FB:B7:F2:CD:BB:B7:49:E2:1C:83:6A:F2:2B
            X509v3 Authority Key Identifier: 
                keyid:FE:E4:EC:53:24:F0:95:95:C7:10:B5:E1:44:B5:5D:39:65:5A:E3:7E
                DirName:/C=US/ST=California/O=XML Security Library (http:\/\/www.aleksey.com\/xmlsec)/OU=Root CA/CN=Aleksey Sanin/emailAddress=xmlsec@aleksey.com
                serial:AF:A2:8B:B9:33:AD:DA:AD
    Signature Algorithm: sha1WithRSAEncryption
    Signature Value:
        5d:b8:4e:1f:e7:82:41:5d:db:56:78:de:c4:53:fb:2e:62:54:
        0b:94:ee:5a:74:4c:c8:24:35:4c:42:8a:66:29:f9:83:01:84:
        40:7a:cb:88:d7:1b:c7:ce:60:9e:b7:a5:0b:2b:5d:55:d3:07:
        a1:94:fd:fe:60:8d:7f:61:e2:25
-----BEGIN CERTIFICATE-----
MIID4DCCA4qgAwIBAgIJAK+ii7kzrdq8MA0GCSqGSIb3DQEBBQUAMIGcMQswCQYD
VQQGEwJVUzETMBEGA1UECBMKQ2FsaWZvcm5pYTE9MDsGA1UEChM0WE1MIFNlY3Vy
aXR5IExpYnJhcnkgKGh0dHA6Ly93d3cuYWxla3NleS5jb20veG1sc2VjKTEWMBQG
A1UEAxMNQWxla3NleSBTYW5pbjEhMB8GCSqGSIb3DQEJARYSeG1sc2VjQGFsZWtz
ZXkuY29tMCAXDTIzMDIwNzAzNTQxM1oYDzIxMjMwMTE0MDM1NDEzWjCBwDELMAkG
A1UEBhMCVVMxEzARBgNVBAgTCkNhbGlmb3JuaWExPTA7BgNVBAoTNFhNTCBTZWN1
cml0eSBMaWJyYXJ5IChodHRwOi8vd3d3LmFsZWtzZXkuY29tL3htbHNlYykxHDAa
BgNVBAsTE0VDRFNBIHNlY3A1MjFyMSBLZXkxHDAaBgNVBAMTE0VDRFNBIHNlY3A1
MjFyMSBLZXkxITAfBgkqhkiG9w0BCQEWEnhtbHNlY0BhbGVrc2V5LmNvbTCBmzAQ
BgcqhkjOPQIBBgUrgQQAIwOBhgAEAS4Rv0oytzKvNzWfSI4LStFm1WlCB77qEl7P
zxJNpTybk/VcuGJ0ewIz1YtUHZDnzeKoUxmjmsahsof2kyt0gV39AaTYDCpdsxX3
Snd2gl8sJrjxw4dL0ZNKqUaz3WxQomgtHYxIGIMGML+WySwnXzMWnLVgzuYpcKip
6nU9VsO54wKPo4IBRTCCAUEwDAYDVR0TBAUwAwEB/zAsBglghkgBhvhCAQ0EHxYd
T3BlblNTTCBHZW5lcmF0ZWQgQ2VydGlmaWNhdGUwHQYDVR0OBBYEFL7PzoAltOD7
t/LNu7dJ4hyDavIrMIHjBgNVHSMEgdswgdiAFP7k7FMk8JWVxxC14US1XTllWuN+
oYG0pIGxMIGuMQswCQYDVQQGEwJVUzETMBEGA1UECBMKQ2FsaWZvcm5pYTE9MDsG
A1UEChM0WE1MIFNlY3VyaXR5IExpYnJhcnkgKGh0dHA6Ly93d3cuYWxla3NleS5j
b20veG1sc2VjKTEQMA4GA1UECxMHUm9vdCBDQTEWMBQGA1UEAxMNQWxla3NleSBT
YW5pbjEhMB8GCSqGSIb3DQEJARYSeG1sc2VjQGFsZWtzZXkuY29tggkAr6KLuTOt
2q0wDQYJKoZIhvcNAQEFBQADQQBduE4f54JBXdtWeN7EU/suYlQLlO5adEzIJDVM
QopmKfmDAYRAesuI1xvHzmCet6ULK11V0wehlP3+YI1/YeIl
-----END CERTIFICATE-----
