Certificate:
    Data:
        Version: 3 (0x2)
        Serial Number:
            af:a2:8b:b9:33:ad:da:bf
        Signature Algorithm: sha1WithRSAEncryption
        Issuer: C=US, ST=California, O=XML Security Library (http:\/\/www.aleksey.com\/xmlsec), CN=Aleksey Sanin/emailAddress=xmlsec@aleksey.com
        Validity
            Not Before: Feb 26 17:31:22 2023 GMT
            Not After : Feb  2 17:31:22 2123 GMT
        Subject: C=US, ST=California, O=XML Security Library (http:\/\/www.aleksey.com\/xmlsec), OU=EC prime256v1 Key, CN=Aleksey Sanin/emailAddress=xmlsec@aleksey.com
        Subject Public Key Info:
            Public Key Algorithm: id-ecPublicKey
                Public-Key: (256 bit)
                pub:
                    04:ae:22:8b:8e:2f:22:23:6d:a2:b8:80:75:27:8e:
                    8d:64:67:33:44:05:dc:1e:eb:44:4d:ba:94:85:2d:
                    70:84:de:f3:d8:1c:dd:46:e4:e5:09:ab:dd:af:d1:
                    cf:6d:06:82:b8:fc:e3:96:97:e4:e5:26:16:3b:2e:
                    3f:17:cf:25:73
                ASN1 OID: prime256v1
                NIST CURVE: P-256
        X509v3 extensions:
            X509v3 Basic Constraints: 
                CA:TRUE
            Netscape Comment: 
                OpenSSL Generated Certificate
            X509v3 Subject Key Identifier: 
                56:74:72:99:A6:C3:0F:96:77:E7:EC:43:95:C1:31:CF:5A:96:E7:0C
            X509v3 Authority Key Identifier: 
                keyid:FE:E4:EC:53:24:F0:95:95:C7:10:B5:E1:44:B5:5D:39:65:5A:E3:7E
                DirName:/C=US/ST=California/O=XML Security Library (http:\/\/www.aleksey.com\/xmlsec)/OU=Root CA/CN=Aleksey Sanin/emailAddress=xmlsec@aleksey.com
                serial:AF:A2:8B:B9:33:AD:DA:AD
    Signature Algorithm: sha1WithRSAEncryption
    Signature Value:
        77:42:d2:fc:af:6c:ed:66:0e:00:c7:6a:b5:25:cd:aa:da:e5:
        54:da:65:70:1f:fe:95:4d:c0:3e:bd:37:16:8e:7a:8a:d1:e2:
        16:7a:c8:c2:69:ab:fb:45:40:5a:f8:4d:5a:fb:cb:7f:a3:fa:
        a1:79:ef:d4:87:d2:5e:03:bc:e8
-----BEGIN CERTIFICATE-----
MIIDlTCCAz+gAwIBAgIJAK+ii7kzrdq/MA0GCSqGSIb3DQEBBQUAMIGcMQswCQYD
VQQGEwJVUzETMBEGA1UECBMKQ2FsaWZvcm5pYTE9MDsGA1UEChM0WE1MIFNlY3Vy
aXR5IExpYnJhcnkgKGh0dHA6Ly93d3cuYWxla3NleS5jb20veG1sc2VjKTEWMBQG
A1UEAxMNQWxla3NleSBTYW5pbjEhMB8GCSqGSIb3DQEJARYSeG1sc2VjQGFsZWtz
ZXkuY29tMCAXDTIzMDIyNjE3MzEyMloYDzIxMjMwMjAyMTczMTIyWjCBuDELMAkG
A1UEBhMCVVMxEzARBgNVBAgTCkNhbGlmb3JuaWExPTA7BgNVBAoTNFhNTCBTZWN1
cml0eSBMaWJyYXJ5IChodHRwOi8vd3d3LmFsZWtzZXkuY29tL3htbHNlYykxGjAY
BgNVBAsTEUVDIHByaW1lMjU2djEgS2V5MRYwFAYDVQQDEw1BbGVrc2V5IFNhbmlu
MSEwHwYJKoZIhvcNAQkBFhJ4bWxzZWNAYWxla3NleS5jb20wWTATBgcqhkjOPQIB
BggqhkjOPQMBBwNCAASuIouOLyIjbaK4gHUnjo1kZzNEBdwe60RNupSFLXCE3vPY
HN1G5OUJq92v0c9tBoK4/OOWl+TlJhY7Lj8XzyVzo4IBRTCCAUEwDAYDVR0TBAUw
AwEB/zAsBglghkgBhvhCAQ0EHxYdT3BlblNTTCBHZW5lcmF0ZWQgQ2VydGlmaWNh
dGUwHQYDVR0OBBYEFFZ0cpmmww+Wd+fsQ5XBMc9alucMMIHjBgNVHSMEgdswgdiA
FP7k7FMk8JWVxxC14US1XTllWuN+oYG0pIGxMIGuMQswCQYDVQQGEwJVUzETMBEG
A1UECBMKQ2FsaWZvcm5pYTE9MDsGA1UEChM0WE1MIFNlY3VyaXR5IExpYnJhcnkg
KGh0dHA6Ly93d3cuYWxla3NleS5jb20veG1sc2VjKTEQMA4GA1UECxMHUm9vdCBD
QTEWMBQGA1UEAxMNQWxla3NleSBTYW5pbjEhMB8GCSqGSIb3DQEJARYSeG1sc2Vj
QGFsZWtzZXkuY29tggkAr6KLuTOt2q0wDQYJKoZIhvcNAQEFBQADQQB3QtL8r2zt
Zg4Ax2q1Jc2q2uVU2mVwH/6VTcA+vTcWjnqK0eIWesjCaav7RUBa+E1a+8t/o/qh
ee/Uh9JeA7zo
-----END CERTIFICATE-----
