Certificate:
    Data:
        Version: 3 (0x2)
        Serial Number:
            af:a2:8b:b9:33:ad:da:cc
        Signature Algorithm: sha1WithRSAEncryption
        Issuer: C=US, ST=California, O=XML Security Library (http:\/\/www.aleksey.com\/xmlsec), CN=Aleksey Sanin/emailAddress=xmlsec@aleksey.com
        Validity
            Not Before: Dec 20 22:56:57 2025 GMT
            Not After : Nov 26 22:56:57 2125 GMT
        Subject: C=US, ST=California, O=XML Security Library (http:\/\/www.aleksey.com\/xmlsec), CN=Test Key ml-dsa-44
        Subject Public Key Info:
            Public Key Algorithm: ML-DSA-44
                ML-DSA-44 Public-Key:
                pub:
                    d8:c9:31:98:d9:24:3b:cb:d3:05:56:51:da:b5:d4:
                    a4:66:0b:fa:0a:db:05:0f:19:21:f3:7a:89:40:c1:
                    27:dd:45:98:03:31:12:3d:94:85:f5:5d:5d:7e:e7:
                    81:1c:73:b2:7c:f7:95:f5:6a:5a:36:34:f3:c0:16:
                    d1:62:e4:d6:3b:17:73:fa:c8:52:1d:ac:53:76:db:
                    da:77:99:04:e3:c7:ab:a2:ac:30:cf:a9:ed:6d:e5:
                    39:07:a2:df:43:92:ef:00:f9:7b:94:0f:9f:89:3f:
                    94:17:ec:dd:46:06:6b:ae:22:39:e5:c6:99:29:26:
                    e7:95:cc:44:99:13:b6:42:e6:d1:05:bf:7c:7c:62:
                    87:b1:f8:5d:98:db:dd:ea:8d:50:04:ae:ec:5c:fc:
                    39:ae:5c:a7:9f:9b:26:dc:07:c5:e0:cb:16:3f:86:
                    82:11:85:37:6e:ea:8c:09:e9:25:a7:da:36:00:b3:
                    65:5d:ca:bb:7c:6c:90:d2:4e:71:2e:76:5d:db:95:
                    58:f1:33:28:2c:1f:2e:31:89:f4:38:1d:a2:d0:8f:
                    9b:6f:cd:8a:05:10:90:b6:de:c3:5d:36:84:cc:51:
                    e8:2e:d0:ea:08:a1:c3:a6:99:bd:9e:d8:f5:67:64:
                    40:fb:2e:f8:b4:ad:72:8a:26:f6:20:5a:52:de:21:
                    a7:e9:c8:73:35:86:2c:fb:b3:67:8f:82:ff:5a:40:
                    f8:c2:c1:60:f5:72:e9:90:07:ef:25:43:83:d4:7d:
                    66:4e:4a:a8:3d:83:6e:bc:f3:cb:fc:5c:05:f2:38:
                    65:1b:60:f1:df:e0:7d:f2:ca:70:f5:a9:20:98:25:
                    8e:2b:f1:e3:00:87:df:3e:bd:41:ce:de:94:dc:3a:
                    03:9d:a2:c0:12:b7:4f:87:b2:05:a5:f9:0c:a7:60:
                    4e:1b:38:fa:91:2b:f5:f2:6f:8a:7e:37:a1:ac:0b:
                    f4:32:5d:e7:8f:39:70:24:4c:33:61:3d:00:b1:f2:
                    7e:5d:95:69:29:33:0c:10:82:df:b2:6d:5a:4a:e3:
                    cc:1b:36:cb:d8:f1:92:44:7d:b4:c4:b0:14:e5:a6:
                    9c:b3:da:d1:67:bb:53:a5:85:55:a9:09:11:a2:65:
                    68:2c:e9:a8:6e:58:03:51:19:bc:1a:86:28:a0:c1:
                    38:7f:a1:09:2e:fc:96:a9:26:21:53:b6:58:42:0b:
                    90:10:e1:7f:5a:47:25:f8:45:4a:e9:e5:b0:25:73:
                    be:3c:93:c7:58:c0:55:33:8b:b2:31:a9:31:04:ee:
                    0a:42:b0:6d:a2:5c:61:c5:36:61:3f:1e:da:9c:05:
                    73:88:15:39:a6:12:53:50:ee:ef:d6:81:0d:7a:8b:
                    7b:1b:5d:7f:e7:85:e1:40:0b:b0:df:b4:d4:82:4c:
                    2f:d9:b5:7f:52:61:a5:43:9a:e3:83:24:de:a4:c9:
                    93:13:1a:9d:b1:10:4e:a3:37:18:f3:99:ba:83:c7:
                    4f:04:8b:ae:71:fb:6c:33:e6:d3:f9:c5:b4:90:bc:
                    9e:2f:55:ba:de:ee:de:8a:76:e2:90:e8:1f:96:67:
                    dc:67:44:ef:28:64:75:94:01:46:1e:82:20:b1:3a:
                    a5:5b:e9:6b:1c:13:6b:6d:28:35:e7:b2:4a:dc:7f:
                    68:bf:ed:7d:64:f6:b9:ca:5e:3f:ca:10:61:81:fe:
                    3c:f4:a5:bf:22:7d:e8:65:aa:ef:e6:5b:4a:17:8f:
                    f2:81:2c:e9:d9:b7:3f:2a:f3:ce:ad:58:c3:ae:7a:
                    1f:d1:2c:92:81:1a:78:ba:04:06:d6:3a:37:7f:14:
                    f7:57:fe:b0:1b:9e:f0:11:9d:19:04:48:d2:b0:fb:
                    a1:64:8d:ce:d6:52:e8:4a:24:70:ad:7a:6f:1d:a9:
                    a6:63:14:49:46:50:75:fd:99:cb:0b:97:5f:cb:3f:
                    ca:ca:0c:52:a7:f1:bc:de:14:21:81:b4:2d:ff:4d:
                    d6:66:b6:e5:78:6b:99:09:51:93:58:c2:98:49:93:
                    4e:93:d1:2e:aa:e0:be:23:80:e8:0d:fe:ba:76:7f:
                    93:fa:9b:3b:f8:dc:6b:c4:44:5d:06:55:22:9f:23:
                    42:b1:cc:a9:24:8f:2c:6b:97:5f:93:8c:6f:bd:13:
                    07:77:9b:fb:38:70:a4:00:f2:9a:ae:62:e7:ff:4e:
                    b9:c2:84:dd:99:30:fc:88:e4:7b:f9:49:3a:5d:af:
                    f7:d6:c3:e7:a8:e0:f7:4f:23:27:23:1f:c8:73:fc:
                    b5:9f:0c:37:23:97:6b:65:f1:e9:aa:98:d1:9f:d2:
                    65:d9:0b:34:16:59:b9:c7:bd:94:8e:b3:40:28:ba:
                    82:e7:34:82:6a:6a:2b:d4:bc:23:86:85:32:59:cd:
                    8b:91:c4:c3:c4:51:8d:45:d7:fd:17:b1:6d:71:a5:
                    0e:fb:52:ac:5f:29:1a:11:20:39:94:7a:6c:bb:0a:
                    93:92:e2:5c:d3:da:75:89:01:9e:4a:cc:46:e5:b4:
                    ed:d1:a2:ad:9a:76:5b:36:09:73:6f:c2:f7:00:31:
                    9c:97:af:a7:09:9d:2f:d0:ca:90:40:2c:42:eb:d6:
                    78:b8:18:78:bb:eb:fc:d9:ef:1b:97:5e:b9:5c:78:
                    20:f4:2a:1b:4d:1f:82:2b:7a:5e:bd:7d:3c:7b:92:
                    3c:d3:46:53:cd:ee:a0:e6:90:5f:36:ad:d0:c8:9d:
                    f7:a4:c4:ae:9f:d7:d8:d1:43:da:a5:c8:40:5d:4a:
                    93:5c:f8:75:1c:0e:ec:d1:81:49:e6:b0:9a:6c:3e:
                    11:b5:4f:8c:7d:e3:65:62:56:a6:34:4c:73:c3:95:
                    b8:12:1b:20:6e:ac:b6:7a:e2:69:7e:e7:9a:61:0c:
                    a1:30:f5:dd:38:3e:2e:c8:90:7d:aa:78:03:a5:98:
                    2d:a5:13:c6:2e:bc:03:c5:54:2f:f6:5c:af:2a:91:
                    4e:76:38:5f:45:b3:70:1d:ea:7d:bf:95:4b:59:5d:
                    5d:a8:67:46:c5:73:7a:ad:2d:e7:0e:5b:05:78:5a:
                    0e:06:0e:03:4f:54:58:9f:81:31:6b:08:68:d1:53:
                    f8:5c:bf:87:79:a8:26:56:8d:81:0d:37:49:bf:9f:
                    9a:9b:23:14:a0:95:dd:41:8f:39:a5:56:e6:f1:26:
                    02:86:55:b2:ea:1a:56:26:0f:c7:4e:10:d6:20:04:
                    e6:8e:67:ee:c1:44:9b:c6:3b:c3:6c:04:b0:12:a5:
                    1b:f9:09:33:6b:73:17:ed:92:1c:4f:66:85:44:7a:
                    46:53:37:6e:1b:7f:d9:86:cf:5e:9e:89:31:96:7d:
                    09:a4:62:79:82:ab:c2:9f:07:07:04:60:a8:7c:14:
                    ff:83:1f:29:dc:ad:55:71:95:89:94:ea:4a:a5:94:
                    7e:46:23:55:3a:85:6d:40:bb:be:99:ab:67:0f:b8:
                    8f:e4:71:cf:28:8a:3f:55:3d:25:47:33:a5:ae:f9:
                    81:93:e2:98:b2:f8:e1:1f:fa:4e:4d:dd:52:0f:b3:
                    6d:8f:f0:e0:af:20:20
        X509v3 extensions:
            X509v3 Basic Constraints: 
                CA:TRUE
            Netscape Comment: 
                OpenSSL Generated Certificate
            X509v3 Subject Key Identifier: 
                76:47:EB:C7:B5:13:8E:59:89:76:E6:E8:2D:04:1D:25:F4:C2:7A:1F
            X509v3 Authority Key Identifier: 
                keyid:FE:E4:EC:53:24:F0:95:95:C7:10:B5:E1:44:B5:5D:39:65:5A:E3:7E
                DirName:/C=US/ST=California/O=XML Security Library (http:\/\/www.aleksey.com\/xmlsec)/OU=Root CA/CN=Aleksey Sanin/emailAddress=xmlsec@aleksey.com
                serial:AF:A2:8B:B9:33:AD:DA:AD
    Signature Algorithm: sha1WithRSAEncryption
    Signature Value:
        4d:ba:ac:07:5b:31:0f:c7:a7:9b:0e:4a:66:12:b1:2a:ce:ad:
        67:82:96:b7:1c:2d:47:59:96:e6:bd:41:b2:57:d2:10:e8:30:
        d7:b4:92:6f:d7:a6:30:16:b8:04:0f:75:04:28:5c:2e:fa:9c:
        4b:da:00:bd:78:b9:3b:a0:ae:f7
-----BEGIN CERTIFICATE-----
MIIINTCCB9+gAwIBAgIJAK+ii7kzrdrMMA0GCSqGSIb3DQEBBQUAMIGcMQswCQYD
VQQGEwJVUzETMBEGA1UECBMKQ2FsaWZvcm5pYTE9MDsGA1UEChM0WE1MIFNlY3Vy
aXR5IExpYnJhcnkgKGh0dHA6Ly93d3cuYWxla3NleS5jb20veG1sc2VjKTEWMBQG
A1UEAxMNQWxla3NleSBTYW5pbjEhMB8GCSqGSIb3DQEJARYSeG1sc2VjQGFsZWtz
ZXkuY29tMCAXDTI1MTIyMDIyNTY1N1oYDzIxMjUxMTI2MjI1NjU3WjB+MQswCQYD
VQQGEwJVUzETMBEGA1UECBMKQ2FsaWZvcm5pYTE9MDsGA1UEChM0WE1MIFNlY3Vy
aXR5IExpYnJhcnkgKGh0dHA6Ly93d3cuYWxla3NleS5jb20veG1sc2VjKTEbMBkG
A1UEAxMSVGVzdCBLZXkgbWwtZHNhLTQ0MIIFMjALBglghkgBZQMEAxEDggUhANjJ
MZjZJDvL0wVWUdq11KRmC/oK2wUPGSHzeolAwSfdRZgDMRI9lIX1XV1+54Ecc7J8
95X1alo2NPPAFtFi5NY7F3P6yFIdrFN229p3mQTjx6uirDDPqe1t5TkHot9Dku8A
+XuUD5+JP5QX7N1GBmuuIjnlxpkpJueVzESZE7ZC5tEFv3x8Yoex+F2Y293qjVAE
ruxc/DmuXKefmybcB8XgyxY/hoIRhTdu6owJ6SWn2jYAs2Vdyrt8bJDSTnEudl3b
lVjxMygsHy4xifQ4HaLQj5tvzYoFEJC23sNdNoTMUegu0OoIocOmmb2e2PVnZED7
Lvi0rXKKJvYgWlLeIafpyHM1hiz7s2ePgv9aQPjCwWD1cumQB+8lQ4PUfWZOSqg9
g26888v8XAXyOGUbYPHf4H3yynD1qSCYJY4r8eMAh98+vUHO3pTcOgOdosASt0+H
sgWl+QynYE4bOPqRK/Xyb4p+N6GsC/QyXeePOXAkTDNhPQCx8n5dlWkpMwwQgt+y
bVpK48wbNsvY8ZJEfbTEsBTlppyz2tFnu1OlhVWpCRGiZWgs6ahuWANRGbwahiig
wTh/oQku/JapJiFTtlhCC5AQ4X9aRyX4RUrp5bAlc748k8dYwFUzi7IxqTEE7gpC
sG2iXGHFNmE/HtqcBXOIFTmmElNQ7u/WgQ16i3sbXX/nheFAC7DftNSCTC/ZtX9S
YaVDmuODJN6kyZMTGp2xEE6jNxjzmbqDx08Ei65x+2wz5tP5xbSQvJ4vVbre7t6K
duKQ6B+WZ9xnRO8oZHWUAUYegiCxOqVb6WscE2ttKDXnskrcf2i/7X1k9rnKXj/K
EGGB/jz0pb8ifehlqu/mW0oXj/KBLOnZtz8q886tWMOueh/RLJKBGni6BAbWOjd/
FPdX/rAbnvARnRkESNKw+6Fkjc7WUuhKJHCtem8dqaZjFElGUHX9mcsLl1/LP8rK
DFKn8bzeFCGBtC3/TdZmtuV4a5kJUZNYwphJk06T0S6q4L4jgOgN/rp2f5P6mzv4
3GvERF0GVSKfI0KxzKkkjyxrl1+TjG+9Ewd3m/s4cKQA8pquYuf/TrnChN2ZMPyI
5Hv5STpdr/fWw+eo4PdPIycjH8hz/LWfDDcjl2tl8emqmNGf0mXZCzQWWbnHvZSO
s0AouoLnNIJqaivUvCOGhTJZzYuRxMPEUY1F1/0XsW1xpQ77UqxfKRoRIDmUemy7
CpOS4lzT2nWJAZ5KzEbltO3Roq2adls2CXNvwvcAMZyXr6cJnS/QypBALELr1ni4
GHi76/zZ7xuXXrlceCD0KhtNH4Irel69fTx7kjzTRlPN7qDmkF82rdDInfekxK6f
19jRQ9qlyEBdSpNc+HUcDuzRgUnmsJpsPhG1T4x942ViVqY0THPDlbgSGyBurLZ6
4ml+55phDKEw9d04Pi7IkH2qeAOlmC2lE8YuvAPFVC/2XK8qkU52OF9Fs3Ad6n2/
lUtZXV2oZ0bFc3qtLecOWwV4Wg4GDgNPVFifgTFrCGjRU/hcv4d5qCZWjYENN0m/
n5qbIxSgld1BjzmlVubxJgKGVbLqGlYmD8dOENYgBOaOZ+7BRJvGO8NsBLASpRv5
CTNrcxftkhxPZoVEekZTN24bf9mGz16eiTGWfQmkYnmCq8KfBwcEYKh8FP+DHync
rVVxlYmU6kqllH5GI1U6hW1Au76Zq2cPuI/kcc8oij9VPSVHM6Wu+YGT4piy+OEf
+k5N3VIPs22P8OCvICCjggFFMIIBQTAMBgNVHRMEBTADAQH/MCwGCWCGSAGG+EIB
DQQfFh1PcGVuU1NMIEdlbmVyYXRlZCBDZXJ0aWZpY2F0ZTAdBgNVHQ4EFgQUdkfr
x7UTjlmJduboLQQdJfTCeh8wgeMGA1UdIwSB2zCB2IAU/uTsUyTwlZXHELXhRLVd
OWVa436hgbSkgbEwga4xCzAJBgNVBAYTAlVTMRMwEQYDVQQIEwpDYWxpZm9ybmlh
MT0wOwYDVQQKEzRYTUwgU2VjdXJpdHkgTGlicmFyeSAoaHR0cDovL3d3dy5hbGVr
c2V5LmNvbS94bWxzZWMpMRAwDgYDVQQLEwdSb290IENBMRYwFAYDVQQDEw1BbGVr
c2V5IFNhbmluMSEwHwYJKoZIhvcNAQkBFhJ4bWxzZWNAYWxla3NleS5jb22CCQCv
oou5M63arTANBgkqhkiG9w0BAQUFAANBAE26rAdbMQ/Hp5sOSmYSsSrOrWeClrcc
LUdZlua9QbJX0hDoMNe0km/XpjAWuAQPdQQoXC76nEvaAL14uTugrvc=
-----END CERTIFICATE-----
