Certificate:
    Data:
        Version: 3 (0x2)
        Serial Number:
            af:a2:8b:b9:33:ad:da:d0
        Signature Algorithm: sha1WithRSAEncryption
        Issuer: C=US, ST=California, O=XML Security Library (http:\/\/www.aleksey.com\/xmlsec), CN=Aleksey Sanin/emailAddress=xmlsec@aleksey.com
        Validity
            Not Before: Dec 21 00:12:37 2025 GMT
            Not After : Nov 27 00:12:37 2125 GMT
        Subject: C=US, ST=California, O=XML Security Library (http:\/\/www.aleksey.com\/xmlsec), CN=Test Key ec-prime384v1
        Subject Public Key Info:
            Public Key Algorithm: id-ecPublicKey
                Public-Key: (384 bit)
                pub:
                    04:15:a2:7e:df:7f:aa:a1:ec:f9:17:e0:06:4e:e5:
                    cc:40:ae:01:b9:64:57:0f:88:45:2f:5c:fc:c0:b5:
                    7f:af:50:56:f3:20:0b:40:4a:0f:f9:5f:10:8d:13:
                    eb:42:a4:18:97:04:3d:d5:3a:00:12:19:a3:0e:4f:
                    2c:c7:8c:97:77:b1:69:25:8f:33:c2:3a:ab:c2:e3:
                    49:b7:6e:df:ba:eb:d1:62:1d:cd:f6:68:63:d3:91:
                    83:98:da:42:ed:c6:f9
                ASN1 OID: secp384r1
                NIST CURVE: P-384
        X509v3 extensions:
            X509v3 Basic Constraints: 
                CA:TRUE
            Netscape Comment: 
                OpenSSL Generated Certificate
            X509v3 Subject Key Identifier: 
                BA:F9:D1:93:86:71:15:15:89:6F:06:54:A7:33:BA:4E:5F:0A:CB:1B
            X509v3 Authority Key Identifier: 
                keyid:FE:E4:EC:53:24:F0:95:95:C7:10:B5:E1:44:B5:5D:39:65:5A:E3:7E
                DirName:/C=US/ST=California/O=XML Security Library (http:\/\/www.aleksey.com\/xmlsec)/OU=Root CA/CN=Aleksey Sanin/emailAddress=xmlsec@aleksey.com
                serial:AF:A2:8B:B9:33:AD:DA:AD
    Signature Algorithm: sha1WithRSAEncryption
    Signature Value:
        6e:0f:e9:7d:5c:0a:8e:dd:05:47:d7:93:c2:47:ab:3e:14:cb:
        9c:6c:16:d8:ca:3e:f5:fb:41:32:06:00:f8:59:b4:35:b3:de:
        c7:a7:c7:c4:a0:d5:62:dd:f8:6f:5d:de:46:db:a0:2a:fe:d3:
        8c:b8:7f:7c:c7:0c:38:87:18:fb
-----BEGIN CERTIFICATE-----
MIIDfDCCAyagAwIBAgIJAK+ii7kzrdrQMA0GCSqGSIb3DQEBBQUAMIGcMQswCQYD
VQQGEwJVUzETMBEGA1UECBMKQ2FsaWZvcm5pYTE9MDsGA1UEChM0WE1MIFNlY3Vy
aXR5IExpYnJhcnkgKGh0dHA6Ly93d3cuYWxla3NleS5jb20veG1sc2VjKTEWMBQG
A1UEAxMNQWxla3NleSBTYW5pbjEhMB8GCSqGSIb3DQEJARYSeG1sc2VjQGFsZWtz
ZXkuY29tMCAXDTI1MTIyMTAwMTIzN1oYDzIxMjUxMTI3MDAxMjM3WjCBgjELMAkG
A1UEBhMCVVMxEzARBgNVBAgTCkNhbGlmb3JuaWExPTA7BgNVBAoTNFhNTCBTZWN1
cml0eSBMaWJyYXJ5IChodHRwOi8vd3d3LmFsZWtzZXkuY29tL3htbHNlYykxHzAd
BgNVBAMTFlRlc3QgS2V5IGVjLXByaW1lMzg0djEwdjAQBgcqhkjOPQIBBgUrgQQA
IgNiAAQVon7ff6qh7PkX4AZO5cxArgG5ZFcPiEUvXPzAtX+vUFbzIAtASg/5XxCN
E+tCpBiXBD3VOgASGaMOTyzHjJd3sWkljzPCOqvC40m3bt+669FiHc32aGPTkYOY
2kLtxvmjggFFMIIBQTAMBgNVHRMEBTADAQH/MCwGCWCGSAGG+EIBDQQfFh1PcGVu
U1NMIEdlbmVyYXRlZCBDZXJ0aWZpY2F0ZTAdBgNVHQ4EFgQUuvnRk4ZxFRWJbwZU
pzO6Tl8KyxswgeMGA1UdIwSB2zCB2IAU/uTsUyTwlZXHELXhRLVdOWVa436hgbSk
gbEwga4xCzAJBgNVBAYTAlVTMRMwEQYDVQQIEwpDYWxpZm9ybmlhMT0wOwYDVQQK
EzRYTUwgU2VjdXJpdHkgTGlicmFyeSAoaHR0cDovL3d3dy5hbGVrc2V5LmNvbS94
bWxzZWMpMRAwDgYDVQQLEwdSb290IENBMRYwFAYDVQQDEw1BbGVrc2V5IFNhbmlu
MSEwHwYJKoZIhvcNAQkBFhJ4bWxzZWNAYWxla3NleS5jb22CCQCvoou5M63arTAN
BgkqhkiG9w0BAQUFAANBAG4P6X1cCo7dBUfXk8JHqz4Uy5xsFtjKPvX7QTIGAPhZ
tDWz3senx8Sg1WLd+G9d3kbboCr+04y4f3zHDDiHGPs=
-----END CERTIFICATE-----
