Certificate:
    Data:
        Version: 3 (0x2)
        Serial Number:
            af:a2:8b:b9:33:ad:da:b5
    Signature Algorithm: sha1WithRSAEncryption
        Issuer: C=US, ST=California, O=XML Security Library (http://www.aleksey.com/xmlsec), CN=Aleksey Sanin/emailAddress=xmlsec@aleksey.com
        Validity
            Not Before: Feb 15 22:08:21 2017 GMT
            Not After : Jan 22 22:08:21 2117 GMT
        Subject: C=US, ST=California, O=XML Security Library (http://www.aleksey.com/xmlsec), CN=ECDSA secp256r1 Key/emailAddress=xmlsec@aleksey.com
        Subject Public Key Info:
            Public Key Algorithm: id-ecPublicKey
                Public-Key: (256 bit)
                pub: 
                    04:6d:2e:ce:aa:75:98:77:d1:f7:31:0c:b1:88:88:
                    5e:43:4f:b6:d6:72:8f:46:8f:f2:21:3d:c2:52:8d:
                    a7:dc:7b:de:42:67:36:69:65:f2:5e:3b:31:90:d6:
                    56:3b:6b:73:21:67:d5:75:33:c4:7e:ea:59:52:58:
                    8c:f0:46:a6:d4
                ASN1 OID: prime256v1
                NIST CURVE: P-256
        X509v3 extensions:
            X509v3 Basic Constraints: 
                CA:TRUE
            Netscape Comment: 
                OpenSSL Generated Certificate
            X509v3 Subject Key Identifier: 
                7A:2C:3C:AF:7F:B0:88:7C:34:E5:3F:B7:A9:18:63:7E:10:19:BB:D9
            X509v3 Authority Key Identifier: 
                keyid:FE:E4:EC:53:24:F0:95:95:C7:10:B5:E1:44:B5:5D:39:65:5A:E3:7E
                DirName:/C=US/ST=California/O=XML Security Library (http://www.aleksey.com/xmlsec)/OU=Root CA/CN=Aleksey Sanin/emailAddress=xmlsec@aleksey.com
                serial:AF:A2:8B:B9:33:AD:DA:AD

    Signature Algorithm: sha1WithRSAEncryption
         1b:38:21:ee:bd:d4:14:77:d0:a8:bd:30:ce:63:cc:68:56:96:
         75:ac:f1:26:86:26:40:25:27:17:24:86:15:66:bd:5f:f9:72:
         7b:4b:be:e4:0d:18:fa:59:26:d9:18:f1:c5:48:c3:6f:c6:e1:
         79:81:05:a7:7b:95:97:2e:39:a8
-----BEGIN CERTIFICATE-----
MIIDfzCCAymgAwIBAgIJAK+ii7kzrdq1MA0GCSqGSIb3DQEBBQUAMIGcMQswCQYD
VQQGEwJVUzETMBEGA1UECBMKQ2FsaWZvcm5pYTE9MDsGA1UEChM0WE1MIFNlY3Vy
aXR5IExpYnJhcnkgKGh0dHA6Ly93d3cuYWxla3NleS5jb20veG1sc2VjKTEWMBQG
A1UEAxMNQWxla3NleSBTYW5pbjEhMB8GCSqGSIb3DQEJARYSeG1sc2VjQGFsZWtz
ZXkuY29tMCAXDTE3MDIxNTIyMDgyMVoYDzIxMTcwMTIyMjIwODIxWjCBojELMAkG
A1UEBhMCVVMxEzARBgNVBAgTCkNhbGlmb3JuaWExPTA7BgNVBAoTNFhNTCBTZWN1
cml0eSBMaWJyYXJ5IChodHRwOi8vd3d3LmFsZWtzZXkuY29tL3htbHNlYykxHDAa
BgNVBAMTE0VDRFNBIHNlY3AyNTZyMSBLZXkxITAfBgkqhkiG9w0BCQEWEnhtbHNl
Y0BhbGVrc2V5LmNvbTBZMBMGByqGSM49AgEGCCqGSM49AwEHA0IABG0uzqp1mHfR
9zEMsYiIXkNPttZyj0aP8iE9wlKNp9x73kJnNmll8l47MZDWVjtrcyFn1XUzxH7q
WVJYjPBGptSjggFFMIIBQTAMBgNVHRMEBTADAQH/MCwGCWCGSAGG+EIBDQQfFh1P
cGVuU1NMIEdlbmVyYXRlZCBDZXJ0aWZpY2F0ZTAdBgNVHQ4EFgQUeiw8r3+wiHw0
5T+3qRhjfhAZu9kwgeMGA1UdIwSB2zCB2IAU/uTsUyTwlZXHELXhRLVdOWVa436h
gbSkgbEwga4xCzAJBgNVBAYTAlVTMRMwEQYDVQQIEwpDYWxpZm9ybmlhMT0wOwYD
VQQKEzRYTUwgU2VjdXJpdHkgTGlicmFyeSAoaHR0cDovL3d3dy5hbGVrc2V5LmNv
bS94bWxzZWMpMRAwDgYDVQQLEwdSb290IENBMRYwFAYDVQQDEw1BbGVrc2V5IFNh
bmluMSEwHwYJKoZIhvcNAQkBFhJ4bWxzZWNAYWxla3NleS5jb22CCQCvoou5M63a
rTANBgkqhkiG9w0BAQUFAANBABs4Ie691BR30Ki9MM5jzGhWlnWs8SaGJkAlJxck
hhVmvV/5cntLvuQNGPpZJtkY8cVIw2/G4XmBBad7lZcuOag=
-----END CERTIFICATE-----
