Certificate:
    Data:
        Version: 3 (0x2)
        Serial Number:
            af:a2:8b:b9:33:ad:da:bb
        Signature Algorithm: sha1WithRSAEncryption
        Issuer: C=US, ST=California, O=XML Security Library (http:\/\/www.aleksey.com\/xmlsec), CN=Aleksey Sanin/emailAddress=xmlsec@aleksey.com
        Validity
            Not Before: Dec 13 02:43:43 2022 GMT
            Not After : Nov 19 02:43:43 2122 GMT
        Subject: C=US, ST=California, O=XML Security Library (http:\/\/www.aleksey.com\/xmlsec), OU=Test Third Level DSA Certificate, CN=Aleksey Sanin/emailAddress=xmlsec@aleksey.com
        Subject Public Key Info:
            Public Key Algorithm: dsaEncryption
                Public-Key: (1024 bit)
                pub: 
                    51:c9:e5:db:38:e5:fd:e3:6d:6f:11:80:b0:68:7d:
                    fe:10:24:e8:9b:5b:13:52:28:5b:20:2c:ac:86:58:
                    94:48:19:c1:a4:a9:1b:5e:54:06:51:3e:a8:7c:c0:
                    b1:29:91:33:19:f0:e6:8e:d7:d0:5a:44:ee:b9:ed:
                    b2:07:ab:63:18:e1:9c:06:11:16:d2:d1:27:ad:0c:
                    5a:dc:81:10:4c:77:50:83:d9:50:02:d8:38:5c:ec:
                    ef:c3:37:48:90:a4:1f:0f:88:f7:1a:c4:82:f3:bf:
                    7e:ef:4c:0f:75:e7:cf:59:ac:ee:80:1d:df:19:f1:
                    22:cf:93:d3:c9:d8:1d:68
                P:   
                    00:93:54:58:ea:df:ab:1e:ca:cc:e4:ed:4a:e5:e8:
                    7a:4f:08:f2:5e:ce:40:7b:bc:a8:0a:f8:e0:34:30:
                    68:ab:98:8c:5d:d4:90:b8:d5:61:bc:1e:ee:5b:34:
                    5e:e7:b1:e7:b0:e8:15:cc:df:d6:9f:51:d0:9b:d3:
                    01:5d:30:ea:30:e2:05:51:43:6c:5d:18:75:37:62:
                    79:af:e9:c6:91:e0:88:ed:d3:51:d1:ef:7e:01:7e:
                    08:83:53:ce:9c:b3:32:6a:f3:c8:65:41:38:d7:a1:
                    ba:10:11:ae:05:78:39:1a:a2:9a:ae:a3:22:bd:96:
                    98:8a:c7:75:ce:00:d0:ef:75
                Q:   
                    00:96:f8:0b:e8:55:b3:61:79:fb:c0:2d:30:25:27:
                    70:45:f6:d9:8f:bd
                G:   
                    6e:8f:7e:8b:d4:6a:f1:26:9a:7f:2d:6f:22:5d:0a:
                    81:a8:9a:ee:45:5b:73:ae:33:c7:03:f1:48:5b:51:
                    cc:89:f3:d0:90:f9:40:0d:47:0a:7a:58:4c:4d:1f:
                    00:45:34:53:03:f4:47:2f:b4:3b:80:d4:76:a0:ae:
                    4e:ed:88:0f:f9:27:4a:40:5b:61:02:00:9e:6a:b2:
                    56:db:b2:bc:30:10:b0:91:30:87:c5:e7:84:c6:9b:
                    47:af:54:99:20:58:61:8f:9e:97:4f:1b:76:df:22:
                    a2:69:45:4e:fc:bf:14:55:c3:f2:8e:72:9e:31:36:
                    76:7c:30:3f:4f:4c:2d:bd
        X509v3 extensions:
            X509v3 Basic Constraints: 
                CA:TRUE
            Netscape Comment: 
                OpenSSL Generated Certificate
            X509v3 Subject Key Identifier: 
                C5:F5:6F:79:61:43:A5:F9:36:1C:D8:AD:F5:96:E2:54:35:04:54:BC
            X509v3 Authority Key Identifier: 
                keyid:FE:E4:EC:53:24:F0:95:95:C7:10:B5:E1:44:B5:5D:39:65:5A:E3:7E
                DirName:/C=US/ST=California/O=XML Security Library (http:\/\/www.aleksey.com\/xmlsec)/OU=Root CA/CN=Aleksey Sanin/emailAddress=xmlsec@aleksey.com
                serial:AF:A2:8B:B9:33:AD:DA:AD
    Signature Algorithm: sha1WithRSAEncryption
    Signature Value:
        6b:14:91:fe:82:c4:5a:ea:45:1f:1d:65:4f:76:d8:5b:3a:ea:
        23:73:8b:fe:11:07:23:22:dd:ea:40:0f:d7:f2:f9:3f:00:b1:
        f8:55:10:ca:f9:53:52:16:0c:1d:f8:b4:d6:a3:cb:88:9a:9d:
        87:ff:55:69:93:64:86:06:d2:a3
-----BEGIN CERTIFICATE-----
MIIFAzCCBK2gAwIBAgIJAK+ii7kzrdq7MA0GCSqGSIb3DQEBBQUAMIGcMQswCQYD
VQQGEwJVUzETMBEGA1UECBMKQ2FsaWZvcm5pYTE9MDsGA1UEChM0WE1MIFNlY3Vy
aXR5IExpYnJhcnkgKGh0dHA6Ly93d3cuYWxla3NleS5jb20veG1sc2VjKTEWMBQG
A1UEAxMNQWxla3NleSBTYW5pbjEhMB8GCSqGSIb3DQEJARYSeG1sc2VjQGFsZWtz
ZXkuY29tMCAXDTIyMTIxMzAyNDM0M1oYDzIxMjIxMTE5MDI0MzQzWjCBxzELMAkG
A1UEBhMCVVMxEzARBgNVBAgTCkNhbGlmb3JuaWExPTA7BgNVBAoTNFhNTCBTZWN1
cml0eSBMaWJyYXJ5IChodHRwOi8vd3d3LmFsZWtzZXkuY29tL3htbHNlYykxKTAn
BgNVBAsTIFRlc3QgVGhpcmQgTGV2ZWwgRFNBIENlcnRpZmljYXRlMRYwFAYDVQQD
Ew1BbGVrc2V5IFNhbmluMSEwHwYJKoZIhvcNAQkBFhJ4bWxzZWNAYWxla3NleS5j
b20wggG2MIIBKwYHKoZIzjgEATCCAR4CgYEAk1RY6t+rHsrM5O1K5eh6TwjyXs5A
e7yoCvjgNDBoq5iMXdSQuNVhvB7uWzRe57HnsOgVzN/Wn1HQm9MBXTDqMOIFUUNs
XRh1N2J5r+nGkeCI7dNR0e9+AX4Ig1POnLMyavPIZUE416G6EBGuBXg5GqKarqMi
vZaYisd1zgDQ73UCFQCW+AvoVbNhefvALTAlJ3BF9tmPvQKBgG6PfovUavEmmn8t
byJdCoGomu5FW3OuM8cD8UhbUcyJ89CQ+UANRwp6WExNHwBFNFMD9EcvtDuA1Hag
rk7tiA/5J0pAW2ECAJ5qslbbsrwwELCRMIfF54TGm0evVJkgWGGPnpdPG3bfIqJp
RU78vxRVw/KOcp4xNnZ8MD9PTC29A4GEAAKBgFHJ5ds45f3jbW8RgLBoff4QJOib
WxNSKFsgLKyGWJRIGcGkqRteVAZRPqh8wLEpkTMZ8OaO19BaRO657bIHq2MY4ZwG
ERbS0SetDFrcgRBMd1CD2VAC2Dhc7O/DN0iQpB8PiPcaxILzv37vTA91589ZrO6A
Hd8Z8SLPk9PJ2B1oo4IBRTCCAUEwDAYDVR0TBAUwAwEB/zAsBglghkgBhvhCAQ0E
HxYdT3BlblNTTCBHZW5lcmF0ZWQgQ2VydGlmaWNhdGUwHQYDVR0OBBYEFMX1b3lh
Q6X5NhzYrfWW4lQ1BFS8MIHjBgNVHSMEgdswgdiAFP7k7FMk8JWVxxC14US1XTll
WuN+oYG0pIGxMIGuMQswCQYDVQQGEwJVUzETMBEGA1UECBMKQ2FsaWZvcm5pYTE9
MDsGA1UEChM0WE1MIFNlY3VyaXR5IExpYnJhcnkgKGh0dHA6Ly93d3cuYWxla3Nl
eS5jb20veG1sc2VjKTEQMA4GA1UECxMHUm9vdCBDQTEWMBQGA1UEAxMNQWxla3Nl
eSBTYW5pbjEhMB8GCSqGSIb3DQEJARYSeG1sc2VjQGFsZWtzZXkuY29tggkAr6KL
uTOt2q0wDQYJKoZIhvcNAQEFBQADQQBrFJH+gsRa6kUfHWVPdthbOuojc4v+EQcj
It3qQA/X8vk/ALH4VRDK+VNSFgwd+LTWo8uImp2H/1Vpk2SGBtKj
-----END CERTIFICATE-----
