Certificate:
    Data:
        Version: 3 (0x2)
        Serial Number:
            af:a2:8b:b9:33:ad:da:c5
        Signature Algorithm: sha1WithRSAEncryption
        Issuer: C=US, ST=California, O=XML Security Library (http:\/\/www.aleksey.com\/xmlsec), CN=Aleksey Sanin/emailAddress=xmlsec@aleksey.com
        Validity
            Not Before: Dec 20 22:30:07 2025 GMT
            Not After : Nov 26 22:30:07 2125 GMT
        Subject: C=US, ST=California, O=XML Security Library (http:\/\/www.aleksey.com\/xmlsec), CN=ML-DSA-44 Key
        Subject Public Key Info:
            Public Key Algorithm: ML-DSA-44
                ML-DSA-44 Public-Key:
                pub:
                    85:16:7d:02:44:c0:51:83:57:05:54:bd:fe:cd:97:
                    9a:45:1e:d9:67:07:97:d2:e4:2e:1c:93:29:20:18:
                    f2:24:20:f4:5b:0c:fb:8c:2e:c9:f3:62:c1:b4:19:
                    69:d7:d2:67:c6:4f:02:73:80:d7:05:1d:06:a4:da:
                    cf:c0:e7:bf:7b:60:1f:2b:a9:13:26:9a:b3:d9:56:
                    cd:04:4c:be:77:2f:9d:35:75:05:77:29:8b:ca:27:
                    8a:03:85:f4:a0:12:3c:a4:54:a2:39:c1:be:36:ed:
                    22:0b:95:a2:59:d6:3c:ae:4b:cd:fb:80:0e:6a:ae:
                    5b:e9:55:d6:25:42:bf:58:89:22:2d:5a:8b:48:85:
                    30:43:24:ad:4f:af:10:4e:d2:6f:dc:51:e8:fe:7a:
                    45:e1:52:d8:1e:26:33:bb:89:5a:09:ab:19:3f:bb:
                    97:07:82:d3:03:9e:1e:fe:a8:c0:b8:01:19:c1:36:
                    a6:d6:52:e3:e5:43:78:05:10:e6:54:45:f2:b0:68:
                    39:70:c4:80:a7:fc:3b:13:6d:e1:06:f0:b5:3b:53:
                    07:b8:5d:75:0d:56:e5:d4:ec:88:82:9d:46:52:93:
                    80:3b:48:1f:58:5d:bc:45:19:65:47:64:73:fe:66:
                    dd:6b:94:fa:38:4a:28:6f:a9:76:e7:b6:9d:4a:ec:
                    41:7e:05:c4:e6:0e:fa:af:8a:05:75:1a:02:56:9b:
                    f0:8f:78:a1:17:c5:01:d9:6f:61:6f:71:09:88:7a:
                    fc:c9:c9:69:ed:74:d4:27:05:f8:20:c5:9c:36:04:
                    24:7b:77:47:55:7e:29:d9:b0:4b:ff:d8:70:a6:a1:
                    37:4e:f8:56:ba:2d:b1:24:57:95:28:21:39:36:d3:
                    13:5b:1e:7a:76:31:32:01:7f:17:2b:a3:40:b1:a9:
                    4b:06:87:69:fe:61:1f:ce:52:55:02:c8:8a:e0:3c:
                    0e:dc:35:0b:c4:f4:ba:88:87:c2:cb:1d:d2:12:8c:
                    83:7a:b3:7f:44:11:39:bb:03:04:5b:85:d1:9b:e2:
                    e8:c2:c0:ea:f8:3c:68:86:67:c2:86:4d:25:2b:0a:
                    7a:af:97:af:1c:b2:9a:ff:a1:37:89:b2:b5:7a:b2:
                    9d:74:2b:ac:2a:d5:fc:89:dd:0e:ac:9d:96:37:ef:
                    ef:9d:6c:92:c1:a9:27:87:43:19:09:5c:3d:a8:97:
                    19:f9:c7:8d:c0:01:ce:fa:d2:64:58:97:e3:6a:4c:
                    b5:bd:8a:2f:5b:db:3e:e5:91:f2:4f:3e:40:22:b3:
                    34:ab:7e:08:ff:56:e3:49:ef:cf:74:1c:60:39:e1:
                    fb:dd:80:82:a6:09:55:86:7e:2e:43:1b:7b:a5:64:
                    fd:46:c5:41:4b:c6:2d:f4:58:64:a3:b8:78:4a:08:
                    6b:b6:6d:da:dd:c5:76:07:c9:85:12:2d:9b:53:9b:
                    e8:48:e5:9b:4a:7c:53:87:29:ca:c2:54:3a:2f:02:
                    fd:0c:92:90:48:ae:8c:63:8a:7b:fa:ad:bf:f8:9c:
                    fa:6d:13:46:94:33:6f:b0:bd:67:45:89:8a:0b:fe:
                    93:7a:34:99:b6:ea:5e:93:2f:da:84:87:a5:6d:38:
                    ae:6f:9c:6f:47:0c:e4:dc:5e:26:9c:59:4f:5a:a0:
                    89:cc:84:97:d3:e6:87:af:75:22:37:44:55:ca:f0:
                    ca:8e:2d:52:4a:b0:fe:60:c3:4a:88:88:6e:f9:81:
                    90:9a:5c:6b:c8:7f:62:73:6e:5e:0c:36:f8:ef:55:
                    38:e5:f9:be:ef:85:47:37:1e:de:db:52:90:b6:98:
                    eb:83:66:82:09:4c:df:c9:97:3a:3f:75:29:8b:77:
                    ff:4a:da:4e:f8:8f:7e:d6:48:88:f7:b0:6f:cd:af:
                    c9:dc:ae:fc:e9:d1:19:b7:15:00:ca:03:7c:b7:28:
                    45:57:f4:e3:a0:92:fe:7b:5a:db:4a:18:0c:51:4c:
                    ff:90:53:c5:85:39:49:6b:f5:aa:ac:72:4e:97:8e:
                    0e:b6:71:31:fa:7e:60:18:70:e1:a4:b9:3a:41:fb:
                    42:4a:bb:e8:df:64:09:4f:c3:4c:21:66:d8:db:94:
                    ea:79:d0:83:1a:67:8d:8f:5b:f8:ea:01:28:85:17:
                    a1:39:ca:dd:0b:7b:27:3b:82:ff:d3:83:31:f3:04:
                    2e:6e:7f:0e:c0:5c:4c:2b:72:db:40:84:64:9b:b6:
                    0c:bb:a2:a5:99:c8:af:13:94:89:bf:c2:b8:d1:80:
                    6a:f8:98:b9:dc:f5:66:35:2a:27:54:47:a9:ff:e8:
                    d7:40:e2:83:35:f6:fb:bb:13:1d:d7:68:98:05:6a:
                    dc:39:f8:b8:1e:3b:38:51:aa:c0:ba:bf:e5:41:71:
                    28:36:0a:20:b8:19:3b:15:88:fb:c7:76:7a:77:e8:
                    2f:3f:04:61:48:e5:ff:11:6b:20:78:8f:e5:d2:b4:
                    0e:68:5c:d4:c0:3d:46:fa:a1:7f:80:11:b3:17:e0:
                    3c:eb:69:18:65:1b:8a:f8:64:c9:72:79:22:a9:0d:
                    22:de:9f:0b:34:40:37:6d:79:82:96:0a:1f:50:e0:
                    2f:22:98:8b:18:ae:92:90:e3:b8:74:88:bd:cc:28:
                    db:c9:22:8c:66:ae:66:0a:a3:63:4a:9c:33:b1:82:
                    ab:61:40:21:8f:92:68:2d:a9:5a:50:c3:75:47:26:
                    9a:20:e8:d5:f3:f2:09:8c:2f:8f:1f:97:23:41:9a:
                    c1:d0:83:a5:81:99:dd:b1:f9:f5:30:43:b6:2a:f1:
                    5a:3b:28:14:43:51:ed:6b:a5:d9:4a:9f:a3:41:23:
                    19:85:5b:f4:ae:f0:5f:0a:b5:3e:e7:dd:45:f1:0c:
                    e1:0d:a8:4c:29:a9:45:36:4a:63:05:bb:6f:34:c4:
                    b2:cc:11:a3:a4:73:8f:f6:0b:12:b4:ad:5b:4b:68:
                    46:de:51:9f:d7:e5:3a:fd:bd:4d:b9:2e:6a:6f:fe:
                    0c:cb:7b:4f:49:43:9a:a4:ac:9c:b8:a1:db:27:9b:
                    e1:c2:11:2f:e2:62:3e:6f:0b:34:48:58:59:76:92:
                    39:a8:c1:d9:bc:a7:4e:5f:25:46:1e:f7:70:2a:35:
                    2f:e8:25:4c:4c:8d:e0:cb:70:bd:a9:38:2d:79:a4:
                    f9:87:03:08:c1:2b:3c:2b:a7:6e:47:38:f0:2a:c2:
                    d4:f4:f2:b2:1a:ae:a1:a2:43:d6:18:f4:b8:bd:b7:
                    64:d1:a1:83:d6:0d:1a:76:01:06:fc:10:a3:10:2d:
                    2f:97:2d:28:60:a2:01:c7:46:7a:b8:74:87:9d:f2:
                    42:fe:22:b9:aa:e1:52:63:42:3b:19:b8:27:7e:a8:
                    05:4b:b8:ba:a1:2f:f5:31:4f:17:c4:10:6d:46:d6:
                    c5:40:a5:a3:5c:05:d3:20:9a:d3:51:0e:62:84:b3:
                    82:ee:51:25:78:5e:27:2c:bf:51:73:58:71:85:fb:
                    ef:a9:c3:11:fd:e0:60:1b:3d:3e:b7:3f:1b:2a:ff:
                    f6:74:81:34:78:aa:5c
        X509v3 extensions:
            X509v3 Basic Constraints: 
                CA:TRUE
            Netscape Comment: 
                OpenSSL Generated Certificate
            X509v3 Subject Key Identifier: 
                56:DA:3B:25:09:6A:33:86:32:83:68:24:DB:9C:22:BC:91:1D:1E:8D
            X509v3 Authority Key Identifier: 
                keyid:FE:E4:EC:53:24:F0:95:95:C7:10:B5:E1:44:B5:5D:39:65:5A:E3:7E
                DirName:/C=US/ST=California/O=XML Security Library (http:\/\/www.aleksey.com\/xmlsec)/OU=Root CA/CN=Aleksey Sanin/emailAddress=xmlsec@aleksey.com
                serial:AF:A2:8B:B9:33:AD:DA:AD
    Signature Algorithm: sha1WithRSAEncryption
    Signature Value:
        51:ce:11:7b:c3:09:3d:c3:a4:e9:ca:08:2d:d6:31:c3:c2:11:
        aa:4e:ed:57:19:0c:6d:0b:0e:92:51:e9:a4:68:41:05:f2:24:
        63:e8:dd:05:8b:79:b8:20:70:5c:39:d8:c9:b8:40:9b:08:43:
        e5:c5:73:b1:1d:b6:31:65:27:ac
-----BEGIN CERTIFICATE-----
MIIIMDCCB9qgAwIBAgIJAK+ii7kzrdrFMA0GCSqGSIb3DQEBBQUAMIGcMQswCQYD
VQQGEwJVUzETMBEGA1UECBMKQ2FsaWZvcm5pYTE9MDsGA1UEChM0WE1MIFNlY3Vy
aXR5IExpYnJhcnkgKGh0dHA6Ly93d3cuYWxla3NleS5jb20veG1sc2VjKTEWMBQG
A1UEAxMNQWxla3NleSBTYW5pbjEhMB8GCSqGSIb3DQEJARYSeG1sc2VjQGFsZWtz
ZXkuY29tMCAXDTI1MTIyMDIyMzAwN1oYDzIxMjUxMTI2MjIzMDA3WjB5MQswCQYD
VQQGEwJVUzETMBEGA1UECBMKQ2FsaWZvcm5pYTE9MDsGA1UEChM0WE1MIFNlY3Vy
aXR5IExpYnJhcnkgKGh0dHA6Ly93d3cuYWxla3NleS5jb20veG1sc2VjKTEWMBQG
A1UEAxMNTUwtRFNBLTQ0IEtleTCCBTIwCwYJYIZIAWUDBAMRA4IFIQCFFn0CRMBR
g1cFVL3+zZeaRR7ZZweX0uQuHJMpIBjyJCD0Wwz7jC7J82LBtBlp19Jnxk8Cc4DX
BR0GpNrPwOe/e2AfK6kTJpqz2VbNBEy+dy+dNXUFdymLyieKA4X0oBI8pFSiOcG+
Nu0iC5WiWdY8rkvN+4AOaq5b6VXWJUK/WIkiLVqLSIUwQyStT68QTtJv3FHo/npF
4VLYHiYzu4laCasZP7uXB4LTA54e/qjAuAEZwTam1lLj5UN4BRDmVEXysGg5cMSA
p/w7E23hBvC1O1MHuF11DVbl1OyIgp1GUpOAO0gfWF28RRllR2Rz/mbda5T6OEoo
b6l257adSuxBfgXE5g76r4oFdRoCVpvwj3ihF8UB2W9hb3EJiHr8yclp7XTUJwX4
IMWcNgQke3dHVX4p2bBL/9hwpqE3TvhWui2xJFeVKCE5NtMTWx56djEyAX8XK6NA
salLBodp/mEfzlJVAsiK4DwO3DULxPS6iIfCyx3SEoyDerN/RBE5uwMEW4XRm+Lo
wsDq+DxohmfChk0lKwp6r5evHLKa/6E3ibK1erKddCusKtX8id0OrJ2WN+/vnWyS
waknh0MZCVw9qJcZ+ceNwAHO+tJkWJfjaky1vYovW9s+5ZHyTz5AIrM0q34I/1bj
Se/PdBxgOeH73YCCpglVhn4uQxt7pWT9RsVBS8Yt9Fhko7h4Sghrtm3a3cV2B8mF
Ei2bU5voSOWbSnxThynKwlQ6LwL9DJKQSK6MY4p7+q2/+Jz6bRNGlDNvsL1nRYmK
C/6TejSZtupeky/ahIelbTiub5xvRwzk3F4mnFlPWqCJzISX0+aHr3UiN0RVyvDK
ji1SSrD+YMNKiIhu+YGQmlxryH9ic25eDDb471U45fm+74VHNx7e21KQtpjrg2aC
CUzfyZc6P3Upi3f/StpO+I9+1kiI97Bvza/J3K786dEZtxUAygN8tyhFV/TjoJL+
e1rbShgMUUz/kFPFhTlJa/WqrHJOl44OtnEx+n5gGHDhpLk6QftCSrvo32QJT8NM
IWbY25TqedCDGmeNj1v46gEohRehOcrdC3snO4L/04Mx8wQubn8OwFxMK3LbQIRk
m7YMu6KlmcivE5SJv8K40YBq+Ji53PVmNSonVEep/+jXQOKDNfb7uxMd12iYBWrc
Ofi4Hjs4UarAur/lQXEoNgoguBk7FYj7x3Z6d+gvPwRhSOX/EWsgeI/l0rQOaFzU
wD1G+qF/gBGzF+A862kYZRuK+GTJcnkiqQ0i3p8LNEA3bXmClgofUOAvIpiLGK6S
kOO4dIi9zCjbySKMZq5mCqNjSpwzsYKrYUAhj5JoLalaUMN1RyaaIOjV8/IJjC+P
H5cjQZrB0IOlgZndsfn1MEO2KvFaOygUQ1Hta6XZSp+jQSMZhVv0rvBfCrU+591F
8QzhDahMKalFNkpjBbtvNMSyzBGjpHOP9gsStK1bS2hG3lGf1+U6/b1NuS5qb/4M
y3tPSUOapKycuKHbJ5vhwhEv4mI+bws0SFhZdpI5qMHZvKdOXyVGHvdwKjUv6CVM
TI3gy3C9qTgteaT5hwMIwSs8K6duRzjwKsLU9PKyGq6hokPWGPS4vbdk0aGD1g0a
dgEG/BCjEC0vly0oYKIBx0Z6uHSHnfJC/iK5quFSY0I7GbgnfqgFS7i6oS/1MU8X
xBBtRtbFQKWjXAXTIJrTUQ5ihLOC7lEleF4nLL9Rc1hxhfvvqcMR/eBgGz0+tz8b
Kv/2dIE0eKpco4IBRTCCAUEwDAYDVR0TBAUwAwEB/zAsBglghkgBhvhCAQ0EHxYd
T3BlblNTTCBHZW5lcmF0ZWQgQ2VydGlmaWNhdGUwHQYDVR0OBBYEFFbaOyUJajOG
MoNoJNucIryRHR6NMIHjBgNVHSMEgdswgdiAFP7k7FMk8JWVxxC14US1XTllWuN+
oYG0pIGxMIGuMQswCQYDVQQGEwJVUzETMBEGA1UECBMKQ2FsaWZvcm5pYTE9MDsG
A1UEChM0WE1MIFNlY3VyaXR5IExpYnJhcnkgKGh0dHA6Ly93d3cuYWxla3NleS5j
b20veG1sc2VjKTEQMA4GA1UECxMHUm9vdCBDQTEWMBQGA1UEAxMNQWxla3NleSBT
YW5pbjEhMB8GCSqGSIb3DQEJARYSeG1sc2VjQGFsZWtzZXkuY29tggkAr6KLuTOt
2q0wDQYJKoZIhvcNAQEFBQADQQBRzhF7wwk9w6Tpyggt1jHDwhGqTu1XGQxtCw6S
UemkaEEF8iRj6N0Fi3m4IHBcOdjJuECbCEPlxXOxHbYxZSes
-----END CERTIFICATE-----
