Certificate:
    Data:
        Version: 3 (0x2)
        Serial Number:
            af:a2:8b:b9:33:ad:da:ba
        Signature Algorithm: sha1WithRSAEncryption
        Issuer: C=US, ST=California, O=XML Security Library (http:\/\/www.aleksey.com\/xmlsec), CN=Aleksey Sanin/emailAddress=xmlsec@aleksey.com
        Validity
            Not Before: Dec 13 01:36:42 2022 GMT
            Not After : Dec 14 01:36:42 2022 GMT
        Subject: C=US, ST=California, O=XML Security Library (http:\/\/www.aleksey.com\/xmlsec), OU=Test Expired RSA Certificate, CN=Aleksey Sanin/emailAddress=xmlsec@aleksey.com
        Subject Public Key Info:
            Public Key Algorithm: rsaEncryption
                Public-Key: (2048 bit)
                Modulus:
                    00:ea:51:9f:e0:d2:51:ce:37:9a:57:03:df:49:ad:
                    fc:1c:bf:64:48:2b:33:9e:65:26:09:06:c6:2f:82:
                    45:be:d9:27:b7:40:17:15:ad:ff:6d:a0:1d:cc:7a:
                    5b:57:dc:46:78:b8:b3:35:f1:29:a4:fd:f1:59:b0:
                    d8:e1:66:06:22:33:14:80:87:14:0a:ab:46:27:26:
                    a9:7d:3f:5d:6c:3f:0c:d0:ac:e2:10:2e:b3:50:3f:
                    d0:b1:dc:28:90:b2:61:44:c0:7e:94:65:ce:32:4f:
                    b9:04:01:4d:20:70:92:a9:5d:86:d6:ec:c0:00:50:
                    bb:3b:0c:42:17:51:03:9f:91:f6:5e:f2:8f:33:8b:
                    d1:13:45:a5:0e:27:72:34:e6:5d:99:26:7b:e2:27:
                    b7:2d:73:0c:b2:67:bf:28:83:65:6f:6d:9f:a4:ef:
                    23:46:db:b2:75:47:69:55:55:ec:d5:31:bb:e0:a4:
                    2e:3e:85:87:9e:20:50:61:80:b8:45:9b:35:be:1e:
                    7d:d1:d7:47:1d:2e:44:ce:13:c9:32:a5:08:85:ec:
                    7c:67:59:85:5d:e2:a8:89:69:2d:15:3f:4a:3f:a1:
                    6a:06:c3:fa:7e:5d:6b:25:06:8e:84:ec:73:b0:1b:
                    ff:dd:b1:cb:3d:2d:cb:dd:8b:6e:04:18:50:f2:df:
                    b2:83
                Exponent: 65537 (0x10001)
        X509v3 extensions:
            X509v3 Basic Constraints: 
                CA:TRUE
            Netscape Comment: 
                OpenSSL Generated Certificate
            X509v3 Subject Key Identifier: 
                56:80:92:7E:45:C8:A6:5C:AB:6C:8D:F6:72:C9:93:97:9C:1C:26:D5
            X509v3 Authority Key Identifier: 
                keyid:FE:E4:EC:53:24:F0:95:95:C7:10:B5:E1:44:B5:5D:39:65:5A:E3:7E
                DirName:/C=US/ST=California/O=XML Security Library (http:\/\/www.aleksey.com\/xmlsec)/OU=Root CA/CN=Aleksey Sanin/emailAddress=xmlsec@aleksey.com
                serial:AF:A2:8B:B9:33:AD:DA:AD
    Signature Algorithm: sha1WithRSAEncryption
    Signature Value:
        96:08:99:2b:f3:cf:1d:08:5f:5d:58:3c:94:c2:7f:89:0c:54:
        17:b5:33:cf:5f:67:00:c8:b9:ca:51:3d:83:26:a2:80:28:d0:
        82:62:58:d0:21:6c:c3:bc:e3:b9:94:09:6c:63:28:83:e7:99:
        20:ad:12:d6:fb:6d:25:e3:e4:77
-----BEGIN CERTIFICATE-----
MIIEaTCCBBOgAwIBAgIJAK+ii7kzrdq6MA0GCSqGSIb3DQEBBQUAMIGcMQswCQYD
VQQGEwJVUzETMBEGA1UECBMKQ2FsaWZvcm5pYTE9MDsGA1UEChM0WE1MIFNlY3Vy
aXR5IExpYnJhcnkgKGh0dHA6Ly93d3cuYWxla3NleS5jb20veG1sc2VjKTEWMBQG
A1UEAxMNQWxla3NleSBTYW5pbjEhMB8GCSqGSIb3DQEJARYSeG1sc2VjQGFsZWtz
ZXkuY29tMB4XDTIyMTIxMzAxMzY0MloXDTIyMTIxNDAxMzY0MlowgcMxCzAJBgNV
BAYTAlVTMRMwEQYDVQQIEwpDYWxpZm9ybmlhMT0wOwYDVQQKEzRYTUwgU2VjdXJp
dHkgTGlicmFyeSAoaHR0cDovL3d3dy5hbGVrc2V5LmNvbS94bWxzZWMpMSUwIwYD
VQQLExxUZXN0IEV4cGlyZWQgUlNBIENlcnRpZmljYXRlMRYwFAYDVQQDEw1BbGVr
c2V5IFNhbmluMSEwHwYJKoZIhvcNAQkBFhJ4bWxzZWNAYWxla3NleS5jb20wggEi
MA0GCSqGSIb3DQEBAQUAA4IBDwAwggEKAoIBAQDqUZ/g0lHON5pXA99Jrfwcv2RI
KzOeZSYJBsYvgkW+2Se3QBcVrf9toB3MeltX3EZ4uLM18Smk/fFZsNjhZgYiMxSA
hxQKq0YnJql9P11sPwzQrOIQLrNQP9Cx3CiQsmFEwH6UZc4yT7kEAU0gcJKpXYbW
7MAAULs7DEIXUQOfkfZe8o8zi9ETRaUOJ3I05l2ZJnviJ7ctcwyyZ78og2VvbZ+k
7yNG27J1R2lVVezVMbvgpC4+hYeeIFBhgLhFmzW+Hn3R10cdLkTOE8kypQiF7Hxn
WYVd4qiJaS0VP0o/oWoGw/p+XWslBo6E7HOwG//dscs9Lcvdi24EGFDy37KDAgMB
AAGjggFFMIIBQTAMBgNVHRMEBTADAQH/MCwGCWCGSAGG+EIBDQQfFh1PcGVuU1NM
IEdlbmVyYXRlZCBDZXJ0aWZpY2F0ZTAdBgNVHQ4EFgQUVoCSfkXIplyrbI32csmT
l5wcJtUwgeMGA1UdIwSB2zCB2IAU/uTsUyTwlZXHELXhRLVdOWVa436hgbSkgbEw
ga4xCzAJBgNVBAYTAlVTMRMwEQYDVQQIEwpDYWxpZm9ybmlhMT0wOwYDVQQKEzRY
TUwgU2VjdXJpdHkgTGlicmFyeSAoaHR0cDovL3d3dy5hbGVrc2V5LmNvbS94bWxz
ZWMpMRAwDgYDVQQLEwdSb290IENBMRYwFAYDVQQDEw1BbGVrc2V5IFNhbmluMSEw
HwYJKoZIhvcNAQkBFhJ4bWxzZWNAYWxla3NleS5jb22CCQCvoou5M63arTANBgkq
hkiG9w0BAQUFAANBAJYImSvzzx0IX11YPJTCf4kMVBe1M89fZwDIucpRPYMmooAo
0IJiWNAhbMO847mUCWxjKIPnmSCtEtb7bSXj5Hc=
-----END CERTIFICATE-----
