Certificate:
    Data:
        Version: 3 (0x2)
        Serial Number:
            af:a2:8b:b9:33:ad:da:ca
        Signature Algorithm: sha1WithRSAEncryption
        Issuer: C=US, ST=California, O=XML Security Library (http:\/\/www.aleksey.com\/xmlsec), CN=Aleksey Sanin/emailAddress=xmlsec@aleksey.com
        Validity
            Not Before: Dec 20 22:55:26 2025 GMT
            Not After : Nov 26 22:55:26 2125 GMT
        Subject: C=US, ST=California, O=XML Security Library (http:\/\/www.aleksey.com\/xmlsec), CN=Test Key ec-prime256v1
        Subject Public Key Info:
            Public Key Algorithm: id-ecPublicKey
                Public-Key: (256 bit)
                pub:
                    04:fd:2e:f4:d2:43:ec:aa:f9:cb:49:7f:14:0a:00:
                    14:2f:d1:e3:bb:1b:b8:af:87:d2:ad:74:c7:54:24:
                    1e:d2:e0:3a:1b:8f:50:8f:90:ff:a7:ba:45:8b:37:
                    98:4c:d6:ad:30:db:8e:a1:b2:a8:c1:bd:0d:af:2b:
                    65:75:bd:98:b8
                ASN1 OID: prime256v1
                NIST CURVE: P-256
        X509v3 extensions:
            X509v3 Basic Constraints: 
                CA:TRUE
            Netscape Comment: 
                OpenSSL Generated Certificate
            X509v3 Subject Key Identifier: 
                F1:6A:C3:36:1B:5F:B5:CC:1B:16:F7:11:C1:18:26:74:AE:9A:D1:97
            X509v3 Authority Key Identifier: 
                keyid:FE:E4:EC:53:24:F0:95:95:C7:10:B5:E1:44:B5:5D:39:65:5A:E3:7E
                DirName:/C=US/ST=California/O=XML Security Library (http:\/\/www.aleksey.com\/xmlsec)/OU=Root CA/CN=Aleksey Sanin/emailAddress=xmlsec@aleksey.com
                serial:AF:A2:8B:B9:33:AD:DA:AD
    Signature Algorithm: sha1WithRSAEncryption
    Signature Value:
        ae:47:52:3a:9f:b8:5b:bd:96:96:f4:1d:4a:0d:d1:ed:e6:dc:
        fc:ea:ee:65:b0:d0:48:d9:1f:42:b8:93:bc:e4:de:dc:b5:94:
        26:95:96:26:1f:9d:42:22:48:79:a5:0c:d1:aa:c3:0b:c3:05:
        f8:b9:8c:05:f6:3e:ca:10:f7:54
-----BEGIN CERTIFICATE-----
MIIDXzCCAwmgAwIBAgIJAK+ii7kzrdrKMA0GCSqGSIb3DQEBBQUAMIGcMQswCQYD
VQQGEwJVUzETMBEGA1UECBMKQ2FsaWZvcm5pYTE9MDsGA1UEChM0WE1MIFNlY3Vy
aXR5IExpYnJhcnkgKGh0dHA6Ly93d3cuYWxla3NleS5jb20veG1sc2VjKTEWMBQG
A1UEAxMNQWxla3NleSBTYW5pbjEhMB8GCSqGSIb3DQEJARYSeG1sc2VjQGFsZWtz
ZXkuY29tMCAXDTI1MTIyMDIyNTUyNloYDzIxMjUxMTI2MjI1NTI2WjCBgjELMAkG
A1UEBhMCVVMxEzARBgNVBAgTCkNhbGlmb3JuaWExPTA7BgNVBAoTNFhNTCBTZWN1
cml0eSBMaWJyYXJ5IChodHRwOi8vd3d3LmFsZWtzZXkuY29tL3htbHNlYykxHzAd
BgNVBAMTFlRlc3QgS2V5IGVjLXByaW1lMjU2djEwWTATBgcqhkjOPQIBBggqhkjO
PQMBBwNCAAT9LvTSQ+yq+ctJfxQKABQv0eO7G7ivh9KtdMdUJB7S4Dobj1CPkP+n
ukWLN5hM1q0w246hsqjBvQ2vK2V1vZi4o4IBRTCCAUEwDAYDVR0TBAUwAwEB/zAs
BglghkgBhvhCAQ0EHxYdT3BlblNTTCBHZW5lcmF0ZWQgQ2VydGlmaWNhdGUwHQYD
VR0OBBYEFPFqwzYbX7XMGxb3EcEYJnSumtGXMIHjBgNVHSMEgdswgdiAFP7k7FMk
8JWVxxC14US1XTllWuN+oYG0pIGxMIGuMQswCQYDVQQGEwJVUzETMBEGA1UECBMK
Q2FsaWZvcm5pYTE9MDsGA1UEChM0WE1MIFNlY3VyaXR5IExpYnJhcnkgKGh0dHA6
Ly93d3cuYWxla3NleS5jb20veG1sc2VjKTEQMA4GA1UECxMHUm9vdCBDQTEWMBQG
A1UEAxMNQWxla3NleSBTYW5pbjEhMB8GCSqGSIb3DQEJARYSeG1sc2VjQGFsZWtz
ZXkuY29tggkAr6KLuTOt2q0wDQYJKoZIhvcNAQEFBQADQQCuR1I6n7hbvZaW9B1K
DdHt5tz86u5lsNBI2R9CuJO85N7ctZQmlZYmH51CIkh5pQzRqsMLwwX4uYwF9j7K
EPdU
-----END CERTIFICATE-----
