Certificate:
    Data:
        Version: 3 (0x2)
        Serial Number:
            af:a2:8b:b9:33:ad:da:b8
        Signature Algorithm: sha1WithRSAEncryption
        Issuer: C=US, ST=California, O=XML Security Library (http:\/\/www.aleksey.com\/xmlsec), CN=Aleksey Sanin/emailAddress=xmlsec@aleksey.com
        Validity
            Not Before: Jun 22 23:50:43 2022 GMT
            Not After : May 29 23:50:43 2122 GMT
        Subject: C=US, ST=California, O=XML Security Library (http:\/\/www.aleksey.com\/xmlsec), OU=Test Third Level GOST2001 Certificate, CN=Aleksey Sanin/emailAddress=xmlsec@aleksey.com
        Subject Public Key Info:
            Public Key Algorithm: GOST R 34.10-2001
                Public key:
                   X:E28926379D020AA6D129A798E91F5D3B648A280927BCF059152704FADE407C34
                   Y:6EACE45925A70CE205AC30494AC93E0583DE67951594CBEB16E5692758F2FE2F
                Parameter set: id-GostR3410-2001-CryptoPro-A-ParamSet
        X509v3 extensions:
            X509v3 Basic Constraints: 
                CA:TRUE
            Netscape Comment: 
                OpenSSL Generated Certificate
            X509v3 Subject Key Identifier: 
                BF:C4:6D:51:3C:01:D6:66:11:21:73:CB:EC:3B:2A:0E:BD:D7:CF:FF
            X509v3 Authority Key Identifier: 
                keyid:FE:E4:EC:53:24:F0:95:95:C7:10:B5:E1:44:B5:5D:39:65:5A:E3:7E
                DirName:/C=US/ST=California/O=XML Security Library (http:\/\/www.aleksey.com\/xmlsec)/OU=Root CA/CN=Aleksey Sanin/emailAddress=xmlsec@aleksey.com
                serial:AF:A2:8B:B9:33:AD:DA:AD
    Signature Algorithm: sha1WithRSAEncryption
    Signature Value:
        6e:52:fd:fd:73:ee:3c:e4:dd:9c:3b:42:96:77:8c:34:d3:26:
        b0:bb:52:8c:b0:c8:3a:7a:2e:20:cf:94:fc:ce:a5:04:31:95:
        77:52:35:41:01:3d:78:81:e2:30:e5:9b:e3:73:b3:80:92:75:
        22:4a:41:6c:c9:08:33:be:9a:cb
-----BEGIN CERTIFICATE-----
MIIDszCCA12gAwIBAgIJAK+ii7kzrdq4MA0GCSqGSIb3DQEBBQUAMIGcMQswCQYD
VQQGEwJVUzETMBEGA1UECBMKQ2FsaWZvcm5pYTE9MDsGA1UEChM0WE1MIFNlY3Vy
aXR5IExpYnJhcnkgKGh0dHA6Ly93d3cuYWxla3NleS5jb20veG1sc2VjKTEWMBQG
A1UEAxMNQWxla3NleSBTYW5pbjEhMB8GCSqGSIb3DQEJARYSeG1sc2VjQGFsZWtz
ZXkuY29tMCAXDTIyMDYyMjIzNTA0M1oYDzIxMjIwNTI5MjM1MDQzWjCBzDELMAkG
A1UEBhMCVVMxEzARBgNVBAgTCkNhbGlmb3JuaWExPTA7BgNVBAoTNFhNTCBTZWN1
cml0eSBMaWJyYXJ5IChodHRwOi8vd3d3LmFsZWtzZXkuY29tL3htbHNlYykxLjAs
BgNVBAsTJVRlc3QgVGhpcmQgTGV2ZWwgR09TVDIwMDEgQ2VydGlmaWNhdGUxFjAU
BgNVBAMTDUFsZWtzZXkgU2FuaW4xITAfBgkqhkiG9w0BCQEWEnhtbHNlY0BhbGVr
c2V5LmNvbTBjMBwGBiqFAwICEzASBgcqhQMCAiMBBgcqhQMCAh4BA0MABEA0fEDe
+gQnFVnwvCcJKIpkO10f6ZinKdGmCgKdNyaJ4i/+8lgnaeUW68uUFZVn3oMFPslK
STCsBeIMpyVZ5Kxuo4IBRTCCAUEwDAYDVR0TBAUwAwEB/zAsBglghkgBhvhCAQ0E
HxYdT3BlblNTTCBHZW5lcmF0ZWQgQ2VydGlmaWNhdGUwHQYDVR0OBBYEFL/EbVE8
AdZmESFzy+w7Kg6918//MIHjBgNVHSMEgdswgdiAFP7k7FMk8JWVxxC14US1XTll
WuN+oYG0pIGxMIGuMQswCQYDVQQGEwJVUzETMBEGA1UECBMKQ2FsaWZvcm5pYTE9
MDsGA1UEChM0WE1MIFNlY3VyaXR5IExpYnJhcnkgKGh0dHA6Ly93d3cuYWxla3Nl
eS5jb20veG1sc2VjKTEQMA4GA1UECxMHUm9vdCBDQTEWMBQGA1UEAxMNQWxla3Nl
eSBTYW5pbjEhMB8GCSqGSIb3DQEJARYSeG1sc2VjQGFsZWtzZXkuY29tggkAr6KL
uTOt2q0wDQYJKoZIhvcNAQEFBQADQQBuUv39c+485N2cO0KWd4w00yawu1KMsMg6
ei4gz5T8zqUEMZV3UjVBAT14geIw5Zvjc7OAknUiSkFsyQgzvprL
-----END CERTIFICATE-----
