Certificate:
    Data:
        Version: 3 (0x2)
        Serial Number:
            af:a2:8b:b9:33:ad:da:b9
        Signature Algorithm: sha1WithRSAEncryption
        Issuer: C=US, ST=California, O=XML Security Library (http:\/\/www.aleksey.com\/xmlsec), CN=Aleksey Sanin/emailAddress=xmlsec@aleksey.com
        Validity
            Not Before: Dec 12 15:44:26 2022 GMT
            Not After : Nov 18 15:44:26 2122 GMT
        Subject: C=US, ST=California, O=XML Security Library (http:\/\/www.aleksey.com\/xmlsec), OU=Test Third Level DSA Certificate, CN=Aleksey Sanin/emailAddress=xmlsec@aleksey.com
        Subject Public Key Info:
            Public Key Algorithm: dsaEncryption
                Public-Key: (2048 bit)
                pub: 
                    76:18:72:d4:3c:60:06:cb:3e:e8:a2:94:98:1c:c6:
                    de:ab:3f:fd:f8:62:56:62:8c:a4:4b:c5:a7:78:db:
                    93:c1:e2:cb:51:e6:87:f6:7e:eb:08:8c:f4:15:a1:
                    cd:2a:27:6b:83:37:46:1c:db:bd:b7:f5:2a:53:29:
                    aa:54:e8:65:8f:05:df:4b:55:41:52:6f:23:de:87:
                    29:0e:f4:e5:1d:10:98:a6:2c:ca:24:e2:41:c8:cc:
                    18:dc:57:61:80:26:d0:ce:c3:d0:90:57:6e:e8:52:
                    2c:da:92:45:8e:2a:aa:61:61:94:24:8f:5f:b5:c7:
                    d5:30:a6:7f:af:ec:7d:e4:8b:23:9c:3c:da:6f:0b:
                    20:0f:08:72:e8:33:77:e1:27:ca:a6:01:d8:c3:8e:
                    94:52:46:5a:6b:93:99:bf:00:97:4b:5c:ac:1e:2e:
                    7d:e5:20:20:dc:e3:21:88:b4:7f:50:08:51:f0:9e:
                    7d:d2:e4:2c:5c:e0:a7:97:02:a8:04:3e:b3:d5:35:
                    4f:5d:a4:70:3c:9f:a7:6b:bf:c9:58:b7:7d:3a:7d:
                    86:ae:49:9e:22:ee:03:f1:13:16:a1:75:cf:b6:50:
                    4f:10:05:19:6f:e8:32:f5:c4:9c:d0:e3:8e:7c:3c:
                    70:4d:78:71:38:98:b9:01:79:23:55:86:82:a5:a7:
                    d8
                P:   
                    00:a4:33:44:00:0f:6a:2d:28:fd:33:5c:1e:51:75:
                    b9:06:dc:87:a8:21:78:b2:6e:f5:a8:15:05:59:c8:
                    9c:0c:7b:de:75:65:75:00:c5:3f:5c:8b:6c:eb:d0:
                    a5:18:55:05:89:e4:a6:e1:fb:86:db:f2:3c:f0:e6:
                    4a:dd:ce:b5:3f:77:b5:ae:2b:89:8e:5c:cd:d1:e5:
                    43:cb:33:89:f0:0e:30:9d:77:bd:7c:ec:88:74:e4:
                    26:34:18:1d:dc:aa:39:0d:df:5b:02:99:d6:3d:35:
                    df:61:7b:67:58:29:4c:78:d8:cb:de:a7:90:88:ed:
                    a8:2b:96:ae:d9:93:5d:26:e6:5c:ef:08:76:0d:cb:
                    fb:40:d2:0a:3d:57:bb:64:09:b1:33:9a:3e:2e:24:
                    01:a4:9d:6b:6e:79:3a:eb:6b:b8:6a:70:c8:0a:38:
                    45:4a:55:ab:a2:03:a0:56:f4:77:c4:46:7a:20:1b:
                    af:c5:d4:df:6f:14:ff:a6:b3:45:39:0b:90:95:09:
                    ae:c4:1c:48:fb:ea:65:56:c6:60:79:bd:60:b0:6c:
                    21:b0:4d:14:63:b8:31:c0:4e:e4:9b:35:f3:dc:f2:
                    4a:c8:4d:9c:4f:e9:c0:4b:65:33:8b:64:4e:0a:de:
                    64:ae:39:d9:ca:3d:8e:f6:97:98:b6:80:4b:be:4f:
                    56:f3
                Q:   
                    00:da:2e:30:0e:04:a2:e9:11:04:e4:bb:40:d6:26:
                    e7:6e:c8:06:d1:ef:fc:e3:af:2c:72:d8:04:b3
                G:   
                    37:30:52:15:b0:3a:12:8f:45:8d:14:10:b5:8d:17:
                    f0:80:65:69:76:c1:cd:40:96:8b:ca:78:7b:a1:18:
                    b1:6f:dc:14:0c:5d:8d:71:28:2d:76:0a:7a:bf:5c:
                    59:e1:36:c8:70:e6:69:45:9a:c9:e4:f5:78:13:f0:
                    da:f0:91:ee:eb:c4:19:3c:d4:43:2d:75:f2:20:2d:
                    5a:9f:a0:0f:93:59:cc:e1:39:7a:17:44:a6:3b:0e:
                    a0:6c:9a:33:46:b3:d5:0f:8d:87:f5:7a:96:db:be:
                    c8:39:ef:3d:ae:22:9b:71:3b:fb:fc:12:ec:17:2c:
                    aa:ba:5a:e1:b4:94:02:e0:c5:35:54:d5:69:e5:fc:
                    ce:92:10:01:42:f0:06:c5:d1:15:2f:2f:cf:5c:a9:
                    77:12:c1:14:1c:87:b6:4a:3b:20:ae:e2:6f:9f:72:
                    ca:f0:cf:46:50:06:ab:50:1b:d3:e6:23:dd:e5:16:
                    8a:ff:36:39:1c:72:57:c3:3b:f3:a9:eb:50:4b:26:
                    5a:4a:b4:78:f8:65:cd:47:65:4d:25:86:7a:b1:82:
                    58:a7:7a:71:27:92:5e:a3:37:4a:46:ab:c1:bb:ec:
                    c9:3d:5a:fe:b8:ea:76:1c:00:8d:95:56:4e:c3:8e:
                    5f:ec:4e:ca:82:a3:16:98:af:d8:6e:11:df:2c:03:
                    6b
        X509v3 extensions:
            X509v3 Basic Constraints: 
                CA:TRUE
            Netscape Comment: 
                OpenSSL Generated Certificate
            X509v3 Subject Key Identifier: 
                4C:61:05:73:50:34:7D:96:A9:92:53:D3:1B:75:D6:17:3D:83:E6:36
            X509v3 Authority Key Identifier: 
                keyid:FE:E4:EC:53:24:F0:95:95:C7:10:B5:E1:44:B5:5D:39:65:5A:E3:7E
                DirName:/C=US/ST=California/O=XML Security Library (http:\/\/www.aleksey.com\/xmlsec)/OU=Root CA/CN=Aleksey Sanin/emailAddress=xmlsec@aleksey.com
                serial:AF:A2:8B:B9:33:AD:DA:AD
    Signature Algorithm: sha1WithRSAEncryption
    Signature Value:
        1e:95:68:a6:20:10:35:53:80:6b:ac:7e:09:d1:67:33:d4:74:
        7c:0b:24:f2:03:21:33:b2:64:2c:5a:89:bf:cc:bf:e7:5d:0f:
        87:b8:ea:e2:c9:b5:48:5e:23:4d:32:43:8d:5a:c1:05:8c:d5:
        ca:77:07:03:9a:e7:36:2f:3e:4a
-----BEGIN CERTIFICATE-----
MIIGjzCCBjmgAwIBAgIJAK+ii7kzrdq5MA0GCSqGSIb3DQEBBQUAMIGcMQswCQYD
VQQGEwJVUzETMBEGA1UECBMKQ2FsaWZvcm5pYTE9MDsGA1UEChM0WE1MIFNlY3Vy
aXR5IExpYnJhcnkgKGh0dHA6Ly93d3cuYWxla3NleS5jb20veG1sc2VjKTEWMBQG
A1UEAxMNQWxla3NleSBTYW5pbjEhMB8GCSqGSIb3DQEJARYSeG1sc2VjQGFsZWtz
ZXkuY29tMCAXDTIyMTIxMjE1NDQyNloYDzIxMjIxMTE4MTU0NDI2WjCBxzELMAkG
A1UEBhMCVVMxEzARBgNVBAgTCkNhbGlmb3JuaWExPTA7BgNVBAoTNFhNTCBTZWN1
cml0eSBMaWJyYXJ5IChodHRwOi8vd3d3LmFsZWtzZXkuY29tL3htbHNlYykxKTAn
BgNVBAsTIFRlc3QgVGhpcmQgTGV2ZWwgRFNBIENlcnRpZmljYXRlMRYwFAYDVQQD
Ew1BbGVrc2V5IFNhbmluMSEwHwYJKoZIhvcNAQkBFhJ4bWxzZWNAYWxla3NleS5j
b20wggNCMIICNQYHKoZIzjgEATCCAigCggEBAKQzRAAPai0o/TNcHlF1uQbch6gh
eLJu9agVBVnInAx73nVldQDFP1yLbOvQpRhVBYnkpuH7htvyPPDmSt3OtT93ta4r
iY5czdHlQ8szifAOMJ13vXzsiHTkJjQYHdyqOQ3fWwKZ1j0132F7Z1gpTHjYy96n
kIjtqCuWrtmTXSbmXO8Idg3L+0DSCj1Xu2QJsTOaPi4kAaSda255OutruGpwyAo4
RUpVq6IDoFb0d8RGeiAbr8XU328U/6azRTkLkJUJrsQcSPvqZVbGYHm9YLBsIbBN
FGO4McBO5Js189zySshNnE/pwEtlM4tkTgreZK452co9jvaXmLaAS75PVvMCHQDa
LjAOBKLpEQTku0DWJuduyAbR7/zjryxy2ASzAoIBADcwUhWwOhKPRY0UELWNF/CA
ZWl2wc1AlovKeHuhGLFv3BQMXY1xKC12Cnq/XFnhNshw5mlFmsnk9XgT8Nrwke7r
xBk81EMtdfIgLVqfoA+TWczhOXoXRKY7DqBsmjNGs9UPjYf1epbbvsg57z2uIptx
O/v8EuwXLKq6WuG0lALgxTVU1Wnl/M6SEAFC8AbF0RUvL89cqXcSwRQch7ZKOyCu
4m+fcsrwz0ZQBqtQG9PmI93lFor/NjkcclfDO/Op61BLJlpKtHj4Zc1HZU0lhnqx
glinenEnkl6jN0pGq8G77Mk9Wv646nYcAI2VVk7Djl/sTsqCoxaYr9huEd8sA2sD
ggEFAAKCAQB2GHLUPGAGyz7oopSYHMbeqz/9+GJWYoykS8WneNuTweLLUeaH9n7r
CIz0FaHNKidrgzdGHNu9t/UqUymqVOhljwXfS1VBUm8j3ocpDvTlHRCYpizKJOJB
yMwY3FdhgCbQzsPQkFdu6FIs2pJFjiqqYWGUJI9ftcfVMKZ/r+x95IsjnDzabwsg
Dwhy6DN34SfKpgHYw46UUkZaa5OZvwCXS1ysHi595SAg3OMhiLR/UAhR8J590uQs
XOCnlwKoBD6z1TVPXaRwPJ+na7/JWLd9On2GrkmeIu4D8RMWoXXPtlBPEAUZb+gy
9cSc0OOOfDxwTXhxOJi5AXkjVYaCpafYo4IBRTCCAUEwDAYDVR0TBAUwAwEB/zAs
BglghkgBhvhCAQ0EHxYdT3BlblNTTCBHZW5lcmF0ZWQgQ2VydGlmaWNhdGUwHQYD
VR0OBBYEFExhBXNQNH2WqZJT0xt11hc9g+Y2MIHjBgNVHSMEgdswgdiAFP7k7FMk
8JWVxxC14US1XTllWuN+oYG0pIGxMIGuMQswCQYDVQQGEwJVUzETMBEGA1UECBMK
Q2FsaWZvcm5pYTE9MDsGA1UEChM0WE1MIFNlY3VyaXR5IExpYnJhcnkgKGh0dHA6
Ly93d3cuYWxla3NleS5jb20veG1sc2VjKTEQMA4GA1UECxMHUm9vdCBDQTEWMBQG
A1UEAxMNQWxla3NleSBTYW5pbjEhMB8GCSqGSIb3DQEJARYSeG1sc2VjQGFsZWtz
ZXkuY29tggkAr6KLuTOt2q0wDQYJKoZIhvcNAQEFBQADQQAelWimIBA1U4BrrH4J
0Wcz1HR8CyTyAyEzsmQsWom/zL/nXQ+HuOriybVIXiNNMkONWsEFjNXKdwcDmuc2
Lz5K
-----END CERTIFICATE-----
