Certificate:
    Data:
        Version: 3 (0x2)
        Serial Number:
            af:a2:8b:b9:33:ad:da:c8
        Signature Algorithm: sha1WithRSAEncryption
        Issuer: C=US, ST=California, O=XML Security Library (http:\/\/www.aleksey.com\/xmlsec), CN=Aleksey Sanin/emailAddress=xmlsec@aleksey.com
        Validity
            Not Before: Dec 20 22:33:50 2025 GMT
            Not After : Nov 26 22:33:50 2125 GMT
        Subject: C=US, ST=California, O=XML Security Library (http:\/\/www.aleksey.com\/xmlsec), CN=SLH-DSA-SHA2-128f Key
        Subject Public Key Info:
            Public Key Algorithm: SLH-DSA-SHA2-128f
                SLH-DSA-SHA2-128f Public-Key:
                pub:
                    1b:b3:99:b5:b3:4a:97:fe:7e:c7:a0:e0:53:d0:88:
                    00:dc:ec:23:b7:8a:6a:7e:6e:3e:3b:9b:e3:c7:8b:
                    da:30
        X509v3 extensions:
            X509v3 Basic Constraints: 
                CA:TRUE
            Netscape Comment: 
                OpenSSL Generated Certificate
            X509v3 Subject Key Identifier: 
                5E:02:F4:52:5D:53:D0:C1:81:10:72:4F:9B:C6:E3:D6:A4:90:71:55
            X509v3 Authority Key Identifier: 
                keyid:FE:E4:EC:53:24:F0:95:95:C7:10:B5:E1:44:B5:5D:39:65:5A:E3:7E
                DirName:/C=US/ST=California/O=XML Security Library (http:\/\/www.aleksey.com\/xmlsec)/OU=Root CA/CN=Aleksey Sanin/emailAddress=xmlsec@aleksey.com
                serial:AF:A2:8B:B9:33:AD:DA:AD
    Signature Algorithm: sha1WithRSAEncryption
    Signature Value:
        34:9e:c0:83:f5:4d:80:3f:b1:3b:7a:c2:82:84:5f:91:72:92:
        5a:26:af:67:36:57:3b:b9:cd:ed:48:f4:ef:a4:92:2f:f8:32:
        08:7e:3a:f7:48:99:c3:84:be:f1:0c:c9:b1:a9:22:6c:0d:b4:
        9c:da:c9:90:6f:93:e7:15:93:52
-----BEGIN CERTIFICATE-----
MIIDNTCCAt+gAwIBAgIJAK+ii7kzrdrIMA0GCSqGSIb3DQEBBQUAMIGcMQswCQYD
VQQGEwJVUzETMBEGA1UECBMKQ2FsaWZvcm5pYTE9MDsGA1UEChM0WE1MIFNlY3Vy
aXR5IExpYnJhcnkgKGh0dHA6Ly93d3cuYWxla3NleS5jb20veG1sc2VjKTEWMBQG
A1UEAxMNQWxla3NleSBTYW5pbjEhMB8GCSqGSIb3DQEJARYSeG1sc2VjQGFsZWtz
ZXkuY29tMCAXDTI1MTIyMDIyMzM1MFoYDzIxMjUxMTI2MjIzMzUwWjCBgTELMAkG
A1UEBhMCVVMxEzARBgNVBAgTCkNhbGlmb3JuaWExPTA7BgNVBAoTNFhNTCBTZWN1
cml0eSBMaWJyYXJ5IChodHRwOi8vd3d3LmFsZWtzZXkuY29tL3htbHNlYykxHjAc
BgNVBAMTFVNMSC1EU0EtU0hBMi0xMjhmIEtleTAwMAsGCWCGSAFlAwQDFQMhABuz
mbWzSpf+fseg4FPQiADc7CO3imp+bj47m+PHi9owo4IBRTCCAUEwDAYDVR0TBAUw
AwEB/zAsBglghkgBhvhCAQ0EHxYdT3BlblNTTCBHZW5lcmF0ZWQgQ2VydGlmaWNh
dGUwHQYDVR0OBBYEFF4C9FJdU9DBgRByT5vG49akkHFVMIHjBgNVHSMEgdswgdiA
FP7k7FMk8JWVxxC14US1XTllWuN+oYG0pIGxMIGuMQswCQYDVQQGEwJVUzETMBEG
A1UECBMKQ2FsaWZvcm5pYTE9MDsGA1UEChM0WE1MIFNlY3VyaXR5IExpYnJhcnkg
KGh0dHA6Ly93d3cuYWxla3NleS5jb20veG1sc2VjKTEQMA4GA1UECxMHUm9vdCBD
QTEWMBQGA1UEAxMNQWxla3NleSBTYW5pbjEhMB8GCSqGSIb3DQEJARYSeG1sc2Vj
QGFsZWtzZXkuY29tggkAr6KLuTOt2q0wDQYJKoZIhvcNAQEFBQADQQA0nsCD9U2A
P7E7esKChF+RcpJaJq9nNlc7uc3tSPTvpJIv+DIIfjr3SJnDhL7xDMmxqSJsDbSc
2smQb5PnFZNS
-----END CERTIFICATE-----
