Certificate:
    Data:
        Version: 3 (0x2)
        Serial Number:
            af:a2:8b:b9:33:ad:da:d1
        Signature Algorithm: sha1WithRSAEncryption
        Issuer: C=US, ST=California, O=XML Security Library (http:\/\/www.aleksey.com\/xmlsec), CN=Aleksey Sanin/emailAddress=xmlsec@aleksey.com
        Validity
            Not Before: Dec 21 00:21:10 2025 GMT
            Not After : Nov 27 00:21:10 2125 GMT
        Subject: C=US, ST=California, O=XML Security Library (http:\/\/www.aleksey.com\/xmlsec), CN=Test Key ec-prime521v1
        Subject Public Key Info:
            Public Key Algorithm: id-ecPublicKey
                Public-Key: (521 bit)
                pub:
                    04:01:53:f0:d4:be:1f:9d:0d:90:1e:02:da:2b:70:
                    11:af:73:be:0b:1a:14:41:10:ce:5a:5c:35:cb:d7:
                    31:e8:d7:cc:70:66:16:49:4c:e1:9b:93:17:3b:19:
                    30:d7:d9:78:15:0f:c3:f0:d0:89:d0:ed:53:5b:5e:
                    f8:d7:59:40:75:af:e9:00:84:32:a6:20:37:16:3b:
                    6a:6a:f0:f3:2e:ae:1b:e0:ef:bf:3f:9b:23:f5:29:
                    58:4c:5d:1f:76:66:72:4d:0b:59:82:83:bb:9f:f1:
                    05:9b:73:3b:21:7e:5e:5e:6e:2f:05:68:c5:02:ca:
                    bb:fa:e3:06:f7:8c:dd:57:7f:fc:eb:f9:03
                ASN1 OID: secp521r1
                NIST CURVE: P-521
        X509v3 extensions:
            X509v3 Basic Constraints: 
                CA:TRUE
            Netscape Comment: 
                OpenSSL Generated Certificate
            X509v3 Subject Key Identifier: 
                42:05:0C:48:4F:11:13:C2:F6:EC:90:0F:D6:C8:65:B8:90:0F:ED:95
            X509v3 Authority Key Identifier: 
                keyid:FE:E4:EC:53:24:F0:95:95:C7:10:B5:E1:44:B5:5D:39:65:5A:E3:7E
                DirName:/C=US/ST=California/O=XML Security Library (http:\/\/www.aleksey.com\/xmlsec)/OU=Root CA/CN=Aleksey Sanin/emailAddress=xmlsec@aleksey.com
                serial:AF:A2:8B:B9:33:AD:DA:AD
    Signature Algorithm: sha1WithRSAEncryption
    Signature Value:
        12:38:a9:fb:13:12:54:e8:86:4d:6f:85:3d:99:ef:75:e3:56:
        22:df:72:e2:60:96:12:28:1a:01:84:cc:15:4a:db:fe:d9:7a:
        92:f0:96:7e:b2:fe:74:f0:da:7e:74:75:7e:16:68:1f:d7:bf:
        4c:8a:41:79:d7:65:38:fb:50:ae
-----BEGIN CERTIFICATE-----
MIIDojCCA0ygAwIBAgIJAK+ii7kzrdrRMA0GCSqGSIb3DQEBBQUAMIGcMQswCQYD
VQQGEwJVUzETMBEGA1UECBMKQ2FsaWZvcm5pYTE9MDsGA1UEChM0WE1MIFNlY3Vy
aXR5IExpYnJhcnkgKGh0dHA6Ly93d3cuYWxla3NleS5jb20veG1sc2VjKTEWMBQG
A1UEAxMNQWxla3NleSBTYW5pbjEhMB8GCSqGSIb3DQEJARYSeG1sc2VjQGFsZWtz
ZXkuY29tMCAXDTI1MTIyMTAwMjExMFoYDzIxMjUxMTI3MDAyMTEwWjCBgjELMAkG
A1UEBhMCVVMxEzARBgNVBAgTCkNhbGlmb3JuaWExPTA7BgNVBAoTNFhNTCBTZWN1
cml0eSBMaWJyYXJ5IChodHRwOi8vd3d3LmFsZWtzZXkuY29tL3htbHNlYykxHzAd
BgNVBAMTFlRlc3QgS2V5IGVjLXByaW1lNTIxdjEwgZswEAYHKoZIzj0CAQYFK4EE
ACMDgYYABAFT8NS+H50NkB4C2itwEa9zvgsaFEEQzlpcNcvXMejXzHBmFklM4ZuT
FzsZMNfZeBUPw/DQidDtU1te+NdZQHWv6QCEMqYgNxY7amrw8y6uG+Dvvz+bI/Up
WExdH3Zmck0LWYKDu5/xBZtzOyF+Xl5uLwVoxQLKu/rjBveM3Vd//Ov5A6OCAUUw
ggFBMAwGA1UdEwQFMAMBAf8wLAYJYIZIAYb4QgENBB8WHU9wZW5TU0wgR2VuZXJh
dGVkIENlcnRpZmljYXRlMB0GA1UdDgQWBBRCBQxITxETwvbskA/WyGW4kA/tlTCB
4wYDVR0jBIHbMIHYgBT+5OxTJPCVlccQteFEtV05ZVrjfqGBtKSBsTCBrjELMAkG
A1UEBhMCVVMxEzARBgNVBAgTCkNhbGlmb3JuaWExPTA7BgNVBAoTNFhNTCBTZWN1
cml0eSBMaWJyYXJ5IChodHRwOi8vd3d3LmFsZWtzZXkuY29tL3htbHNlYykxEDAO
BgNVBAsTB1Jvb3QgQ0ExFjAUBgNVBAMTDUFsZWtzZXkgU2FuaW4xITAfBgkqhkiG
9w0BCQEWEnhtbHNlY0BhbGVrc2V5LmNvbYIJAK+ii7kzrdqtMA0GCSqGSIb3DQEB
BQUAA0EAEjip+xMSVOiGTW+FPZnvdeNWIt9y4mCWEigaAYTMFUrb/tl6kvCWfrL+
dPDafnR1fhZoH9e/TIpBeddlOPtQrg==
-----END CERTIFICATE-----
