Certificate:
    Data:
        Version: 3 (0x2)
        Serial Number:
            d6:8e:b8:e0:91:82:2c:f7
        Signature Algorithm: sha1WithRSAEncryption
        Issuer: C=US, ST=California, O=XML Security Library (http://www.aleksey.com/xmlsec), OU=Test Root Certificate, CN=Aleksey Sanin/emailAddress=xmlsec@aleksey.com
        Validity
            Not Before: Jul 10 02:29:01 2005 GMT
            Not After : Jul  8 02:29:01 2015 GMT
        Subject: C=US, ST=California, O=XML Security Library (http://www.aleksey.com/xmlsec), OU=Test Root Certificate, CN=Aleksey Sanin/emailAddress=xmlsec@aleksey.com
        Subject Public Key Info:
            Public Key Algorithm: rsaEncryption
            RSA Public Key: (1024 bit)
                Modulus (1024 bit):
                    00:da:c9:a1:5a:8c:9c:4e:75:55:3e:f0:48:f0:3b:
                    7d:52:d9:7a:8d:99:8c:71:6c:77:e2:50:93:b7:c3:
                    68:79:ec:e3:d4:90:a0:1c:29:ee:46:be:df:61:25:
                    b3:d3:6f:70:b8:6e:53:d2:70:e9:1e:d9:17:b1:2a:
                    75:d2:ee:90:17:5d:bc:45:96:05:25:67:44:0a:d0:
                    ad:a9:76:5e:79:f4:e4:a6:ae:d1:f7:98:f3:fd:04:
                    9b:ef:0c:c9:71:91:c3:63:f7:f1:1e:0f:ec:86:77:
                    c1:8d:ff:24:fa:3d:30:e1:f0:6f:f8:96:cc:ce:5c:
                    bf:ad:c8:a2:24:0b:86:2c:ff
                Exponent: 65537 (0x10001)
        X509v3 extensions:
            X509v3 Basic Constraints: 
                CA:TRUE
            Netscape Comment: 
                OpenSSL Generated Certificate
            X509v3 Subject Key Identifier: 
                DA:46:E9:6B:E6:AF:D3:3D:AA:E5:21:4B:52:ED:CA:66:28:E0:FE:85
            X509v3 Authority Key Identifier: 
                keyid:DA:46:E9:6B:E6:AF:D3:3D:AA:E5:21:4B:52:ED:CA:66:28:E0:FE:85
                DirName:/C=US/ST=California/O=XML Security Library (http://www.aleksey.com/xmlsec)/OU=Test Root Certificate/CN=Aleksey Sanin/emailAddress=xmlsec@aleksey.com
                serial:D6:8E:B8:E0:91:82:2C:F7

    Signature Algorithm: sha1WithRSAEncryption
        54:5d:b7:4e:4d:0c:00:ad:c3:6b:6f:16:af:cc:04:69:d8:91:
        8e:9f:3a:3a:5b:34:e6:f8:e1:52:5c:2d:05:d3:c6:30:4f:c8:
        d6:6e:1b:7d:ed:ef:25:34:d5:4e:05:4e:18:ff:7f:11:79:9a:
        98:0b:d3:aa:16:87:c6:d7:f3:bd:01:d4:39:f1:62:ff:15:68:
        3c:0e:03:f9:30:93:d3:4f:d9:11:53:71:54:d3:58:d4:89:7d:
        be:91:b7:67:82:16:40:38:99:b4:ce:24:4d:c5:f3:4f:c0:82:
        16:3c:a6:17:c9:71:0a:41:0c:eb:9f:1c:85:7b:2d:61:3f:b7:
        20:e8
-----BEGIN CERTIFICATE-----
MIIETTCCA7agAwIBAgIJANaOuOCRgiz3MA0GCSqGSIb3DQEBBQUAMIG8MQswCQYD
VQQGEwJVUzETMBEGA1UECBMKQ2FsaWZvcm5pYTE9MDsGA1UEChM0WE1MIFNlY3Vy
aXR5IExpYnJhcnkgKGh0dHA6Ly93d3cuYWxla3NleS5jb20veG1sc2VjKTEeMBwG
A1UECxMVVGVzdCBSb290IENlcnRpZmljYXRlMRYwFAYDVQQDEw1BbGVrc2V5IFNh
bmluMSEwHwYJKoZIhvcNAQkBFhJ4bWxzZWNAYWxla3NleS5jb20wHhcNMDUwNzEw
MDIyOTAxWhcNMTUwNzA4MDIyOTAxWjCBvDELMAkGA1UEBhMCVVMxEzARBgNVBAgT
CkNhbGlmb3JuaWExPTA7BgNVBAoTNFhNTCBTZWN1cml0eSBMaWJyYXJ5IChodHRw
Oi8vd3d3LmFsZWtzZXkuY29tL3htbHNlYykxHjAcBgNVBAsTFVRlc3QgUm9vdCBD
ZXJ0aWZpY2F0ZTEWMBQGA1UEAxMNQWxla3NleSBTYW5pbjEhMB8GCSqGSIb3DQEJ
ARYSeG1sc2VjQGFsZWtzZXkuY29tMIGfMA0GCSqGSIb3DQEBAQUAA4GNADCBiQKB
gQDayaFajJxOdVU+8EjwO31S2XqNmYxxbHfiUJO3w2h57OPUkKAcKe5Gvt9hJbPT
b3C4blPScOke2RexKnXS7pAXXbxFlgUlZ0QK0K2pdl559OSmrtH3mPP9BJvvDMlx
kcNj9/EeD+yGd8GN/yT6PTDh8G/4lszOXL+tyKIkC4Ys/wIDAQABo4IBUzCCAU8w
DAYDVR0TBAUwAwEB/zAsBglghkgBhvhCAQ0EHxYdT3BlblNTTCBHZW5lcmF0ZWQg
Q2VydGlmaWNhdGUwHQYDVR0OBBYEFNpG6Wvmr9M9quUhS1LtymYo4P6FMIHxBgNV
HSMEgekwgeaAFNpG6Wvmr9M9quUhS1LtymYo4P6FoYHCpIG/MIG8MQswCQYDVQQG
EwJVUzETMBEGA1UECBMKQ2FsaWZvcm5pYTE9MDsGA1UEChM0WE1MIFNlY3VyaXR5
IExpYnJhcnkgKGh0dHA6Ly93d3cuYWxla3NleS5jb20veG1sc2VjKTEeMBwGA1UE
CxMVVGVzdCBSb290IENlcnRpZmljYXRlMRYwFAYDVQQDEw1BbGVrc2V5IFNhbmlu
MSEwHwYJKoZIhvcNAQkBFhJ4bWxzZWNAYWxla3NleS5jb22CCQDWjrjgkYIs9zAN
BgkqhkiG9w0BAQUFAAOBgQBUXbdOTQwArcNrbxavzARp2JGOnzo6WzTm+OFSXC0F
08YwT8jWbht97e8lNNVOBU4Y/38ReZqYC9OqFofG1/O9AdQ58WL/FWg8DgP5MJPT
T9kRU3FU01jUiX2+kbdnghZAOJm0ziRNxfNPwIIWPKYXyXEKQQzrnxyFey1hP7cg
6A==
-----END CERTIFICATE-----
